TN:
SF:/Library/Developer/CommandLineTools/SDKs/MacOSX.sdk/usr/include/c++/v1/__algorithm/clamp.h
FNL:0,25,30
FNA:0,1528,_ZNSt3__15clampB8ne200100IdNS_6__lessIvvEEEERKT_S5_S5_S5_T0_
FNA:0,10696,_ZNSt3__15clampB8ne200100IfNS_6__lessIvvEEEERKT_S5_S5_S5_T0_
FNA:0,4584,_ZNSt3__15clampB8ne200100IiNS_6__lessIvvEEEERKT_S5_S5_S5_T0_
FNL:1,35,38
FNA:1,1528,_ZNSt3__15clampB8ne200100IdEERKT_S3_S3_S3_
FNA:1,10696,_ZNSt3__15clampB8ne200100IfEERKT_S3_S3_S3_
FNA:1,4584,_ZNSt3__15clampB8ne200100IiEERKT_S3_S3_S3_
FNF:2
FNH:2
DA:25,16808
DA:30,16808
DA:35,16808
DA:38,16808
LF:4
LH:4
end_of_record
TN:
SF:/Library/Developer/CommandLineTools/SDKs/MacOSX.sdk/usr/include/c++/v1/__algorithm/comp.h
FNL:0,40,41
FNA:0,13396,_ZNKSt3__16__lessIvvEclB8ne200100IddEEbRKT_RKT0_
FNA:0,21422,_ZNKSt3__16__lessIvvEclB8ne200100IffEEbRKT_RKT0_
FNA:0,9383,_ZNKSt3__16__lessIvvEclB8ne200100IiiEEbRKT_RKT0_
FNA:0,248450,_ZNKSt3__16__lessIvvEclB8ne200100ImmEEbRKT_RKT0_
FNF:1
FNH:1
DA:40,292651
DA:41,292651
LF:2
LH:2
end_of_record
TN:
SF:/Library/Developer/CommandLineTools/SDKs/MacOSX.sdk/usr/include/c++/v1/__algorithm/copy.h
FNL:0,101,102
FNA:0,0,_ZNKSt3__111__copy_implclB8ne200100IN2cv6Point_IfEES4_Li0EEENS_4pairIPT_PT0_EES7_S7_S9_
FNA:0,0,_ZNKSt3__111__copy_implclB8ne200100IddLi0EEENS_4pairIPT_PT0_EES4_S4_S6_
FNL:1,108,109
FNA:1,0,_ZNSt3__16__copyB8ne200100INS_11__wrap_iterIPN2cv3MatEEES5_S4_EENS_4pairIT_T1_EES7_T0_S8_
FNA:1,0,_ZNSt3__16__copyB8ne200100IPN2cv6Point_IfEES4_S4_EENS_4pairIT_T1_EES6_T0_S7_
FNA:1,0,_ZNSt3__16__copyB8ne200100IPdS1_S1_EENS_4pairIT_T1_EES3_T0_S4_
FNL:2,114,115
FNA:2,0,_ZNSt3__14copyB8ne200100INS_11__wrap_iterIPN2cv3MatEEES4_EET0_T_S7_S6_
FNA:2,0,_ZNSt3__14copyB8ne200100IPN2cv6Point_IfEES4_EET0_T_S6_S5_
FNA:2,0,_ZNSt3__14copyB8ne200100IPdS1_EET0_T_S3_S2_
FNL:3,38,45
FNA:3,0,_ZNKSt3__111__copy_implclB8ne200100IPN2cv3MatES4_S4_EENS_4pairIT_T1_EES6_T0_S7_
FNF:4
FNH:0
DA:38,0
DA:39,0
DA:40,0
DA:41,0
DA:42,0
DA:45,0
DA:101,0
DA:102,0
DA:108,0
DA:109,0
DA:114,0
DA:115,0
LF:12
LH:0
end_of_record
TN:
SF:/Library/Developer/CommandLineTools/SDKs/MacOSX.sdk/usr/include/c++/v1/__algorithm/copy_move_common.h
FNL:0,61,67
FNA:0,0,_ZNSt3__119__copy_trivial_implB8ne200100IN2cv6Point_IfEES3_EENS_4pairIPT_PT0_EES6_S6_S8_
FNA:0,0,_ZNSt3__119__copy_trivial_implB8ne200100IPN2cv3MatES3_EENS_4pairIPT_PT0_EES6_S6_S8_
FNA:0,0,_ZNSt3__119__copy_trivial_implB8ne200100IddEENS_4pairIPT_PT0_EES3_S3_S5_
FNL:1,71,78
FNA:1,0,_ZNSt3__128__copy_backward_trivial_implB8ne200100IPN2cv3MatES3_EENS_4pairIPT_PT0_EES6_S6_S8_
FNL:2,92,97
FNA:2,0,_ZNSt3__124__copy_move_unwrap_itersB8ne200100INS_11__copy_implENS_11__wrap_iterIPN2cv3MatEEES6_S5_Li0EEENS_4pairIT0_T2_EES8_T1_S9_
FNA:2,0,_ZNSt3__124__copy_move_unwrap_itersB8ne200100INS_11__copy_implEPN2cv6Point_IfEES5_S5_Li0EEENS_4pairIT0_T2_EES7_T1_S8_
FNA:2,0,_ZNSt3__124__copy_move_unwrap_itersB8ne200100INS_11__copy_implEPdS2_S2_Li0EEENS_4pairIT0_T2_EES4_T1_S5_
FNA:2,0,_ZNSt3__124__copy_move_unwrap_itersB8ne200100INS_11__move_implINS_17_ClassicAlgPolicyEEEPPN2cv3MatES7_S7_Li0EEENS_4pairIT0_T2_EES9_T1_SA_
FNA:2,0,_ZNSt3__124__copy_move_unwrap_itersB8ne200100INS_20__move_backward_implINS_17_ClassicAlgPolicyEEEPN2cv3MatES6_S6_Li0EEENS_4pairIT0_T2_EES8_T1_S9_
FNA:2,0,_ZNSt3__124__copy_move_unwrap_itersB8ne200100INS_20__move_backward_implINS_17_ClassicAlgPolicyEEEPPN2cv3MatES7_S7_Li0EEENS_4pairIT0_T2_EES9_T1_SA_
FNF:3
FNH:0
DA:61,0
DA:62,0
DA:64,0
DA:66,0
DA:67,0
DA:71,0
DA:72,0
DA:73,0
DA:75,0
DA:77,0
DA:78,0
DA:92,0
DA:93,0
DA:94,0
DA:95,0
DA:96,0
DA:97,0
LF:17
LH:0
end_of_record
TN:
SF:/Library/Developer/CommandLineTools/SDKs/MacOSX.sdk/usr/include/c++/v1/__algorithm/copy_n.h
FNL:0,51,56
FNA:0,0,_ZNSt3__16copy_nB8ne200100INS_11__wrap_iterIPN2cv3MatEEElS4_Li0EEET1_T_T0_S6_
FNF:1
FNH:0
DA:51,0
DA:54,0
DA:55,0
DA:56,0
LF:4
LH:0
end_of_record
TN:
SF:/Library/Developer/CommandLineTools/SDKs/MacOSX.sdk/usr/include/c++/v1/__algorithm/fill_n.h
FNL:0,81,84
FNA:0,0,_ZNSt3__18__fill_nB8ne200100IPcmcEET_S2_T0_RKT1_
FNL:1,89,90
FNA:1,0,_ZNSt3__16fill_nB8ne200100IPcmcEET_S2_T0_RKT1_
FNF:2
FNH:0
DA:81,0
DA:82,0
DA:83,0
DA:84,0
DA:89,0
DA:90,0
LF:6
LH:0
end_of_record
TN:
SF:/Library/Developer/CommandLineTools/SDKs/MacOSX.sdk/usr/include/c++/v1/__algorithm/iterator_operations.h
FNL:0,103,109
FNA:0,0,_ZNSt3__18_IterOpsINS_17_ClassicAlgPolicyEE25__validate_iter_referenceB8ne200100IRPN2cv3MatEEEvv
FNL:1,117,120
FNA:1,0,_ZNSt3__18_IterOpsINS_17_ClassicAlgPolicyEE11__iter_moveB8ne200100IRPN2cv3MatELi0EEEDTclsr3stdE4movedeclsr3stdE7declvalIRT_EEEEOS8_
FNL:2,143,144
FNA:2,0,_ZNSt3__18_IterOpsINS_17_ClassicAlgPolicyEE4nextB8ne200100IPN2cv3MatEEET_S7_S7_
FNF:3
FNH:0
DA:103,0
DA:109,0
DA:117,0
DA:118,0
DA:120,0
DA:143,0
DA:144,0
LF:7
LH:0
end_of_record
TN:
SF:/Library/Developer/CommandLineTools/SDKs/MacOSX.sdk/usr/include/c++/v1/__algorithm/max.h
FNL:0,29,30
FNA:0,0,_ZNSt3__13maxB8ne200100IdNS_6__lessIvvEEEERKT_S5_S5_T0_
FNA:0,30,_ZNSt3__13maxB8ne200100IfNS_6__lessIvvEEEERKT_S5_S5_T0_
FNA:0,120,_ZNSt3__13maxB8ne200100IiNS_6__lessIvvEEEERKT_S5_S5_T0_
FNA:0,66320,_ZNSt3__13maxB8ne200100ImNS_6__lessIvvEEEERKT_S5_S5_T0_
FNL:1,35,36
FNA:1,0,_ZNSt3__13maxB8ne200100IdEERKT_S3_S3_
FNA:1,30,_ZNSt3__13maxB8ne200100IfEERKT_S3_S3_
FNA:1,120,_ZNSt3__13maxB8ne200100IiEERKT_S3_S3_
FNA:1,66320,_ZNSt3__13maxB8ne200100ImEERKT_S3_S3_
FNF:2
FNH:2
DA:29,66470
DA:30,66470
DA:35,66470
DA:36,66470
LF:4
LH:4
end_of_record
TN:
SF:/Library/Developer/CommandLineTools/SDKs/MacOSX.sdk/usr/include/c++/v1/__algorithm/max_element.h
FNL:0,26,35
FNA:0,80,_ZNSt3__113__max_elementB8ne200100IRNS_6__lessIvvEENS_11__wrap_iterIPKdEEEET0_S8_S8_T_
FNL:1,40,43
FNA:1,80,_ZNSt3__111max_elementB8ne200100INS_11__wrap_iterIPKdEENS_6__lessIvvEEEET_S7_S7_T0_
FNL:2,48,49
FNA:2,80,_ZNSt3__111max_elementB8ne200100INS_11__wrap_iterIPKdEEEET_S5_S5_
FNF:3
FNH:3
DA:26,80
DA:29,80
DA:30,80
DA:31,5250
DA:32,5170
DA:33,196
DA:34,80
DA:35,80
DA:40,80
DA:43,80
DA:48,80
DA:49,80
LF:12
LH:12
end_of_record
TN:
SF:/Library/Developer/CommandLineTools/SDKs/MacOSX.sdk/usr/include/c++/v1/__algorithm/min.h
FNL:0,29,30
FNA:0,0,_ZNSt3__13minB8ne200100IdNS_6__lessIvvEEEERKT_S5_S5_T0_
FNA:0,15,_ZNSt3__13minB8ne200100IfNS_6__lessIvvEEEERKT_S5_S5_T0_
FNA:0,120,_ZNSt3__13minB8ne200100IiNS_6__lessIvvEEEERKT_S5_S5_T0_
FNA:0,182130,_ZNSt3__13minB8ne200100ImNS_6__lessIvvEEEERKT_S5_S5_T0_
FNL:1,35,36
FNA:1,0,_ZNSt3__13minB8ne200100IdEERKT_S3_S3_
FNA:1,15,_ZNSt3__13minB8ne200100IfEERKT_S3_S3_
FNA:1,120,_ZNSt3__13minB8ne200100IiEERKT_S3_S3_
FNA:1,182130,_ZNSt3__13minB8ne200100ImEERKT_S3_S3_
FNF:2
FNH:2
DA:29,182265
DA:30,182265
DA:35,182265
DA:36,182265
LF:4
LH:4
end_of_record
TN:
SF:/Library/Developer/CommandLineTools/SDKs/MacOSX.sdk/usr/include/c++/v1/__algorithm/min_element.h
FNL:0,32,42
FNA:0,80,_ZNSt3__113__min_elementB8ne200100IRNS_6__lessIvvEENS_11__wrap_iterIPKdEES7_NS_10__identityEEET0_S9_T1_T_RT2_
FNL:1,45,48
FNA:1,80,_ZNSt3__113__min_elementB8ne200100IRNS_6__lessIvvEENS_11__wrap_iterIPKdEES7_EET0_S8_T1_T_
FNL:2,52,58
FNA:2,80,_ZNSt3__111min_elementB8ne200100INS_11__wrap_iterIPKdEENS_6__lessIvvEEEET_S7_S7_T0_
FNL:3,63,64
FNA:3,80,_ZNSt3__111min_elementB8ne200100INS_11__wrap_iterIPKdEEEET_S5_S5_
FNF:4
FNH:4
DA:32,80
DA:33,80
DA:34,0
DA:36,80
DA:37,5250
DA:38,5170
DA:39,428
DA:41,80
DA:42,80
DA:45,80
DA:46,80
DA:47,80
DA:48,80
DA:52,80
DA:58,80
DA:63,80
DA:64,80
LF:17
LH:16
end_of_record
TN:
SF:/Library/Developer/CommandLineTools/SDKs/MacOSX.sdk/usr/include/c++/v1/__algorithm/move.h
FNL:0,104,105
FNA:0,0,_ZNKSt3__111__move_implINS_17_ClassicAlgPolicyEEclB8ne200100IPN2cv3MatES6_Li0EEENS_4pairIPT_PT0_EES9_S9_SB_
FNL:1,111,113
FNA:1,0,_ZNSt3__16__moveB8ne200100INS_17_ClassicAlgPolicyEPPN2cv3MatES5_S5_EENS_4pairIT0_T2_EES7_T1_S8_
FNL:2,118,122
FNA:2,0,_ZNSt3__14moveB8ne200100IPPN2cv3MatES4_EET0_T_S6_S5_
FNF:3
FNH:0
DA:104,0
DA:105,0
DA:111,0
DA:112,0
DA:113,0
DA:118,0
DA:122,0
LF:7
LH:0
end_of_record
TN:
SF:/Library/Developer/CommandLineTools/SDKs/MacOSX.sdk/usr/include/c++/v1/__algorithm/move_backward.h
FNL:0,113,114
FNA:0,0,_ZNKSt3__120__move_backward_implINS_17_ClassicAlgPolicyEEclB8ne200100IPN2cv3MatES6_Li0EEENS_4pairIPT_PT0_EES9_S9_SB_
FNL:1,120,126
FNA:1,0,_ZNSt3__115__move_backwardB8ne200100INS_17_ClassicAlgPolicyEPN2cv3MatES4_S4_EENS_4pairIT0_T2_EES6_T1_S7_
FNA:1,0,_ZNSt3__115__move_backwardB8ne200100INS_17_ClassicAlgPolicyEPPN2cv3MatES5_S5_EENS_4pairIT0_T2_EES7_T1_S8_
FNL:2,131,132
FNA:2,0,_ZNSt3__113move_backwardB8ne200100IPN2cv3MatES3_EET0_T_S5_S4_
FNA:2,0,_ZNSt3__113move_backwardB8ne200100IPPN2cv3MatES4_EET0_T_S6_S5_
FNL:3,41,50
FNA:3,0,_ZNKSt3__120__move_backward_implINS_17_ClassicAlgPolicyEEclB8ne200100IPN2cv3MatES6_S6_EENS_4pairIT_T1_EES8_T0_S9_
FNF:4
FNH:0
DA:41,0
DA:42,0
DA:43,0
DA:45,0
DA:46,0
DA:49,0
DA:50,0
DA:113,0
DA:114,0
DA:120,0
DA:125,0
DA:126,0
DA:131,0
DA:132,0
LF:14
LH:0
end_of_record
TN:
SF:/Library/Developer/CommandLineTools/SDKs/MacOSX.sdk/usr/include/c++/v1/__algorithm/unwrap_iter.h
FNL:0,51,52
FNA:0,0,_ZNSt3__118__unwrap_iter_implINS_11__wrap_iterIPN2cv3MatEEELb1EE8__rewrapB8ne200100ES5_S4_
FNA:0,5,_ZNSt3__118__unwrap_iter_implIPN14StabilizerCore16StabilizerParamsELb1EE8__rewrapB8ne200100ES3_S3_
FNA:0,180,_ZNSt3__118__unwrap_iter_implIPN2cv3MatELb1EE8__rewrapB8ne200100ES3_S3_
FNA:0,0,_ZNSt3__118__unwrap_iter_implIPN2cv6Point_IfEELb1EE8__rewrapB8ne200100ES4_S4_
FNA:0,55,_ZNSt3__118__unwrap_iter_implIPNS_12basic_stringIcNS_11char_traitsIcEENS_9allocatorIcEEEELb1EE8__rewrapB8ne200100ES7_S7_
FNA:0,5,_ZNSt3__118__unwrap_iter_implIPNS_4pairIiiEELb1EE8__rewrapB8ne200100ES3_S3_
FNA:0,5,_ZNSt3__118__unwrap_iter_implIPNS_6vectorIN2cv3MatENS_9allocatorIS3_EEEELb1EE8__rewrapB8ne200100ES7_S7_
FNA:0,5,_ZNSt3__118__unwrap_iter_implIPP14StabilizerCoreLb1EE8__rewrapB8ne200100ES3_S3_
FNA:0,0,_ZNSt3__118__unwrap_iter_implIPPN2cv3MatELb1EE8__rewrapB8ne200100ES4_S4_
FNA:0,0,_ZNSt3__118__unwrap_iter_implIPdLb1EE8__rewrapB8ne200100ES1_S1_
FNA:0,10,_ZNSt3__118__unwrap_iter_implIPiLb1EE8__rewrapB8ne200100ES1_S1_
FNL:1,55,56
FNA:1,10,_ZNSt3__118__unwrap_iter_implINS_11__wrap_iterIPN2cv3MatEEELb1EE8__unwrapB8ne200100ES5_
FNA:1,0,_ZNSt3__118__unwrap_iter_implINS_11__wrap_iterIPdEELb1EE8__unwrapB8ne200100ES3_
FNA:1,10,_ZNSt3__118__unwrap_iter_implIPKN14StabilizerCore16StabilizerParamsELb1EE8__unwrapB8ne200100ES4_
FNA:1,110,_ZNSt3__118__unwrap_iter_implIPKNS_12basic_stringIcNS_11char_traitsIcEENS_9allocatorIcEEEELb1EE8__unwrapB8ne200100ES8_
FNA:1,10,_ZNSt3__118__unwrap_iter_implIPKNS_4pairIiiEELb1EE8__unwrapB8ne200100ES4_
FNA:1,10,_ZNSt3__118__unwrap_iter_implIPKNS_6vectorIN2cv3MatENS_9allocatorIS3_EEEELb1EE8__unwrapB8ne200100ES8_
FNA:1,10,_ZNSt3__118__unwrap_iter_implIPKP14StabilizerCoreLb1EE8__unwrapB8ne200100ES4_
FNA:1,20,_ZNSt3__118__unwrap_iter_implIPKiLb1EE8__unwrapB8ne200100ES2_
FNA:1,5,_ZNSt3__118__unwrap_iter_implIPN14StabilizerCore16StabilizerParamsELb1EE8__unwrapB8ne200100ES3_
FNA:1,530,_ZNSt3__118__unwrap_iter_implIPN2cv3MatELb1EE8__unwrapB8ne200100ES3_
FNA:1,0,_ZNSt3__118__unwrap_iter_implIPN2cv6Point_IfEELb1EE8__unwrapB8ne200100ES4_
FNA:1,55,_ZNSt3__118__unwrap_iter_implIPNS_12basic_stringIcNS_11char_traitsIcEENS_9allocatorIcEEEELb1EE8__unwrapB8ne200100ES7_
FNA:1,5,_ZNSt3__118__unwrap_iter_implIPNS_4pairIiiEELb1EE8__unwrapB8ne200100ES3_
FNA:1,5,_ZNSt3__118__unwrap_iter_implIPNS_6vectorIN2cv3MatENS_9allocatorIS3_EEEELb1EE8__unwrapB8ne200100ES7_
FNA:1,5,_ZNSt3__118__unwrap_iter_implIPP14StabilizerCoreLb1EE8__unwrapB8ne200100ES3_
FNA:1,0,_ZNSt3__118__unwrap_iter_implIPPN2cv3MatELb1EE8__unwrapB8ne200100ES4_
FNA:1,0,_ZNSt3__118__unwrap_iter_implIPdLb1EE8__unwrapB8ne200100ES1_
FNA:1,10,_ZNSt3__118__unwrap_iter_implIPiLb1EE8__unwrapB8ne200100ES1_
FNL:2,64,65
FNA:2,10,_ZNSt3__113__unwrap_iterB8ne200100INS_11__wrap_iterIPN2cv3MatEEENS_18__unwrap_iter_implIS5_Lb1EEELi0EEEDTclsrT0_8__unwrapclsr3stdE7declvalIT_EEEES9_
FNA:2,0,_ZNSt3__113__unwrap_iterB8ne200100INS_11__wrap_iterIPdEENS_18__unwrap_iter_implIS3_Lb1EEELi0EEEDTclsrT0_8__unwrapclsr3stdE7declvalIT_EEEES7_
FNA:2,10,_ZNSt3__113__unwrap_iterB8ne200100IPKN14StabilizerCore16StabilizerParamsENS_18__unwrap_iter_implIS4_Lb1EEELi0EEEDTclsrT0_8__unwrapclsr3stdE7declvalIT_EEEES8_
FNA:2,110,_ZNSt3__113__unwrap_iterB8ne200100IPKNS_12basic_stringIcNS_11char_traitsIcEENS_9allocatorIcEEEENS_18__unwrap_iter_implIS8_Lb1EEELi0EEEDTclsrT0_8__unwrapclsr3stdE7declvalIT_EEEESC_
FNA:2,10,_ZNSt3__113__unwrap_iterB8ne200100IPKNS_4pairIiiEENS_18__unwrap_iter_implIS4_Lb1EEELi0EEEDTclsrT0_8__unwrapclsr3stdE7declvalIT_EEEES8_
FNA:2,10,_ZNSt3__113__unwrap_iterB8ne200100IPKNS_6vectorIN2cv3MatENS_9allocatorIS3_EEEENS_18__unwrap_iter_implIS8_Lb1EEELi0EEEDTclsrT0_8__unwrapclsr3stdE7declvalIT_EEEESC_
FNA:2,10,_ZNSt3__113__unwrap_iterB8ne200100IPKP14StabilizerCoreNS_18__unwrap_iter_implIS4_Lb1EEELi0EEEDTclsrT0_8__unwrapclsr3stdE7declvalIT_EEEES8_
FNA:2,20,_ZNSt3__113__unwrap_iterB8ne200100IPKiNS_18__unwrap_iter_implIS2_Lb1EEELi0EEEDTclsrT0_8__unwrapclsr3stdE7declvalIT_EEEES6_
FNA:2,5,_ZNSt3__113__unwrap_iterB8ne200100IPN14StabilizerCore16StabilizerParamsENS_18__unwrap_iter_implIS3_Lb1EEELi0EEEDTclsrT0_8__unwrapclsr3stdE7declvalIT_EEEES7_
FNA:2,530,_ZNSt3__113__unwrap_iterB8ne200100IPN2cv3MatENS_18__unwrap_iter_implIS3_Lb1EEELi0EEEDTclsrT0_8__unwrapclsr3stdE7declvalIT_EEEES7_
FNA:2,0,_ZNSt3__113__unwrap_iterB8ne200100IPN2cv6Point_IfEENS_18__unwrap_iter_implIS4_Lb1EEELi0EEEDTclsrT0_8__unwrapclsr3stdE7declvalIT_EEEES8_
FNA:2,55,_ZNSt3__113__unwrap_iterB8ne200100IPNS_12basic_stringIcNS_11char_traitsIcEENS_9allocatorIcEEEENS_18__unwrap_iter_implIS7_Lb1EEELi0EEEDTclsrT0_8__unwrapclsr3stdE7declvalIT_EEEESB_
FNA:2,5,_ZNSt3__113__unwrap_iterB8ne200100IPNS_4pairIiiEENS_18__unwrap_iter_implIS3_Lb1EEELi0EEEDTclsrT0_8__unwrapclsr3stdE7declvalIT_EEEES7_
FNA:2,5,_ZNSt3__113__unwrap_iterB8ne200100IPNS_6vectorIN2cv3MatENS_9allocatorIS3_EEEENS_18__unwrap_iter_implIS7_Lb1EEELi0EEEDTclsrT0_8__unwrapclsr3stdE7declvalIT_EEEESB_
FNA:2,5,_ZNSt3__113__unwrap_iterB8ne200100IPP14StabilizerCoreNS_18__unwrap_iter_implIS3_Lb1EEELi0EEEDTclsrT0_8__unwrapclsr3stdE7declvalIT_EEEES7_
FNA:2,0,_ZNSt3__113__unwrap_iterB8ne200100IPPN2cv3MatENS_18__unwrap_iter_implIS4_Lb1EEELi0EEEDTclsrT0_8__unwrapclsr3stdE7declvalIT_EEEES8_
FNA:2,0,_ZNSt3__113__unwrap_iterB8ne200100IPdNS_18__unwrap_iter_implIS1_Lb1EEELi0EEEDTclsrT0_8__unwrapclsr3stdE7declvalIT_EEEES5_
FNA:2,10,_ZNSt3__113__unwrap_iterB8ne200100IPiNS_18__unwrap_iter_implIS1_Lb1EEELi0EEEDTclsrT0_8__unwrapclsr3stdE7declvalIT_EEEES5_
FNL:3,77,78
FNA:3,0,_ZNSt3__113__rewrap_iterB8ne200100INS_11__wrap_iterIPN2cv3MatEEES4_NS_18__unwrap_iter_implIS5_Lb1EEEEET_S8_T0_
FNA:3,5,_ZNSt3__113__rewrap_iterB8ne200100IPN14StabilizerCore16StabilizerParamsES3_NS_18__unwrap_iter_implIS3_Lb1EEEEET_S6_T0_
FNA:3,180,_ZNSt3__113__rewrap_iterB8ne200100IPN2cv3MatES3_NS_18__unwrap_iter_implIS3_Lb1EEEEET_S6_T0_
FNA:3,0,_ZNSt3__113__rewrap_iterB8ne200100IPN2cv6Point_IfEES4_NS_18__unwrap_iter_implIS4_Lb1EEEEET_S7_T0_
FNA:3,55,_ZNSt3__113__rewrap_iterB8ne200100IPNS_12basic_stringIcNS_11char_traitsIcEENS_9allocatorIcEEEES7_NS_18__unwrap_iter_implIS7_Lb1EEEEET_SA_T0_
FNA:3,5,_ZNSt3__113__rewrap_iterB8ne200100IPNS_4pairIiiEES3_NS_18__unwrap_iter_implIS3_Lb1EEEEET_S6_T0_
FNA:3,5,_ZNSt3__113__rewrap_iterB8ne200100IPNS_6vectorIN2cv3MatENS_9allocatorIS3_EEEES7_NS_18__unwrap_iter_implIS7_Lb1EEEEET_SA_T0_
FNA:3,5,_ZNSt3__113__rewrap_iterB8ne200100IPP14StabilizerCoreS3_NS_18__unwrap_iter_implIS3_Lb1EEEEET_S6_T0_
FNA:3,0,_ZNSt3__113__rewrap_iterB8ne200100IPPN2cv3MatES4_NS_18__unwrap_iter_implIS4_Lb1EEEEET_S7_T0_
FNA:3,0,_ZNSt3__113__rewrap_iterB8ne200100IPdS1_NS_18__unwrap_iter_implIS1_Lb1EEEEET_S4_T0_
FNA:3,10,_ZNSt3__113__rewrap_iterB8ne200100IPiS1_NS_18__unwrap_iter_implIS1_Lb1EEEEET_S4_T0_
FNF:4
FNH:4
DA:51,265
DA:52,265
DA:55,795
DA:56,795
DA:64,795
DA:65,795
DA:77,265
DA:78,265
LF:8
LH:8
end_of_record
TN:
SF:/Library/Developer/CommandLineTools/SDKs/MacOSX.sdk/usr/include/c++/v1/__algorithm/unwrap_range.h
FNL:0,85,86
FNA:0,5,_ZNSt3__114__unwrap_rangeB8ne200100INS_11__wrap_iterIPN2cv3MatEEES4_EENS_4pairIT0_S7_EET_S9_
FNA:0,0,_ZNSt3__114__unwrap_rangeB8ne200100INS_11__wrap_iterIPdEES2_EENS_4pairIT0_S5_EET_S7_
FNA:0,5,_ZNSt3__114__unwrap_rangeB8ne200100IPKN14StabilizerCore16StabilizerParamsES4_EENS_4pairIT0_S6_EET_S8_
FNA:0,55,_ZNSt3__114__unwrap_rangeB8ne200100IPKNS_12basic_stringIcNS_11char_traitsIcEENS_9allocatorIcEEEES8_EENS_4pairIT0_SA_EET_SC_
FNA:0,5,_ZNSt3__114__unwrap_rangeB8ne200100IPKNS_4pairIiiEES4_EENS1_IT0_S5_EET_S7_
FNA:0,5,_ZNSt3__114__unwrap_rangeB8ne200100IPKNS_6vectorIN2cv3MatENS_9allocatorIS3_EEEES8_EENS_4pairIT0_SA_EET_SC_
FNA:0,5,_ZNSt3__114__unwrap_rangeB8ne200100IPKP14StabilizerCoreS4_EENS_4pairIT0_S6_EET_S8_
FNA:0,10,_ZNSt3__114__unwrap_rangeB8ne200100IPKiS2_EENS_4pairIT0_S4_EET_S6_
FNA:0,175,_ZNSt3__114__unwrap_rangeB8ne200100IPN2cv3MatES3_EENS_4pairIT0_S5_EET_S7_
FNA:0,0,_ZNSt3__114__unwrap_rangeB8ne200100IPN2cv6Point_IfEES4_EENS_4pairIT0_S6_EET_S8_
FNA:0,0,_ZNSt3__114__unwrap_rangeB8ne200100IPPN2cv3MatES4_EENS_4pairIT0_S6_EET_S8_
FNA:0,0,_ZNSt3__114__unwrap_rangeB8ne200100IPdS1_EENS_4pairIT0_S3_EET_S5_
FNL:1,90,91
FNA:1,0,_ZNSt3__114__rewrap_rangeB8ne200100INS_11__wrap_iterIPN2cv3MatEEES4_EET_S6_T0_
FNA:1,0,_ZNSt3__114__rewrap_rangeB8ne200100IPN2cv3MatES3_EET_S4_T0_
FNA:1,0,_ZNSt3__114__rewrap_rangeB8ne200100IPN2cv6Point_IfEES4_EET_S5_T0_
FNA:1,0,_ZNSt3__114__rewrap_rangeB8ne200100IPPN2cv3MatES4_EET_S5_T0_
FNA:1,0,_ZNSt3__114__rewrap_rangeB8ne200100IPdS1_EET_S2_T0_
FNF:2
FNH:1
DA:85,265
DA:86,265
DA:90,0
DA:91,0
LF:4
LH:2
end_of_record
TN:
SF:/Library/Developer/CommandLineTools/SDKs/MacOSX.sdk/usr/include/c++/v1/__chrono/duration.h
FNL:0,105,106
FNA:0,5250,_ZNSt3__16chrono13duration_castB8ne200100INS0_8durationIdNS_5ratioILl1ELl1000EEEEExNS3_ILl1ELl1000000000EEELi0EEET_RKNS2_IT0_T1_EE
FNA:0,59165,_ZNSt3__16chrono13duration_castB8ne200100INS0_8durationIdNS_5ratioILl1ELl1EEEEExNS3_ILl1ELl1000000000EEELi0EEET_RKNS2_IT0_T1_EE
FNA:0,500,_ZNSt3__16chrono13duration_castB8ne200100INS0_8durationIeNS_5ratioILl1ELl1000000EEEEEeNS3_ILl1ELl1EEELi0EEET_RKNS2_IT0_T1_EE
FNA:0,500,_ZNSt3__16chrono13duration_castB8ne200100INS0_8durationIeNS_5ratioILl1ELl1000000EEEEExS4_Li0EEET_RKNS2_IT0_T1_EE
FNA:0,7,_ZNSt3__16chrono13duration_castB8ne200100INS0_8durationIeNS_5ratioILl1ELl1000EEEEEeNS3_ILl1ELl1EEELi0EEET_RKNS2_IT0_T1_EE
FNA:0,7,_ZNSt3__16chrono13duration_castB8ne200100INS0_8durationIeNS_5ratioILl1ELl1000EEEEExS4_Li0EEET_RKNS2_IT0_T1_EE
FNA:0,1000,_ZNSt3__16chrono13duration_castB8ne200100INS0_8durationIxNS_5ratioILl1ELl1000000000EEEEExNS3_ILl1ELl1000000EEELi0EEET_RKNS2_IT0_T1_EE
FNA:0,14,_ZNSt3__16chrono13duration_castB8ne200100INS0_8durationIxNS_5ratioILl1ELl1000000000EEEEExNS3_ILl1ELl1000EEELi0EEET_RKNS2_IT0_T1_EE
FNA:0,10,_ZNSt3__16chrono13duration_castB8ne200100INS0_8durationIxNS_5ratioILl1ELl1000000EEEEExNS3_ILl1ELl1000000000EEELi0EEET_RKNS2_IT0_T1_EE
FNL:1,120,120
FNA:1,597,_ZNSt3__16chrono15duration_valuesIxE4zeroB8ne200100Ev
FNL:2,121,121
FNA:2,0,_ZNSt3__16chrono15duration_valuesIxE3maxB8ne200100Ev
FNL:3,209,209
FNA:3,5250,_ZNSt3__16chrono8durationIdNS_5ratioILl1ELl1000EEEEC1B8ne200100IdLi0EEERKT_
FNA:3,5250,_ZNSt3__16chrono8durationIdNS_5ratioILl1ELl1000EEEEC2B8ne200100IdLi0EEERKT_
FNA:3,59165,_ZNSt3__16chrono8durationIdNS_5ratioILl1ELl1EEEEC1B8ne200100IdLi0EEERKT_
FNA:3,59165,_ZNSt3__16chrono8durationIdNS_5ratioILl1ELl1EEEEC2B8ne200100IdLi0EEERKT_
FNA:3,1000,_ZNSt3__16chrono8durationIeNS_5ratioILl1ELl1000000EEEEC1B8ne200100IeLi0EEERKT_
FNA:3,1000,_ZNSt3__16chrono8durationIeNS_5ratioILl1ELl1000000EEEEC2B8ne200100IeLi0EEERKT_
FNA:3,14,_ZNSt3__16chrono8durationIeNS_5ratioILl1ELl1000EEEEC1B8ne200100IeLi0EEERKT_
FNA:3,14,_ZNSt3__16chrono8durationIeNS_5ratioILl1ELl1000EEEEC2B8ne200100IeLi0EEERKT_
FNA:3,65529,_ZNSt3__16chrono8durationIxNS_5ratioILl1ELl1000000000EEEEC1B8ne200100IxLi0EEERKT_
FNA:3,65529,_ZNSt3__16chrono8durationIxNS_5ratioILl1ELl1000000000EEEEC2B8ne200100IxLi0EEERKT_
FNA:3,500,_ZNSt3__16chrono8durationIxNS_5ratioILl1ELl1000000EEEEC1B8ne200100IiLi0EEERKT_
FNA:3,510,_ZNSt3__16chrono8durationIxNS_5ratioILl1ELl1000000EEEEC1B8ne200100IxLi0EEERKT_
FNA:3,500,_ZNSt3__16chrono8durationIxNS_5ratioILl1ELl1000000EEEEC2B8ne200100IiLi0EEERKT_
FNA:3,510,_ZNSt3__16chrono8durationIxNS_5ratioILl1ELl1000000EEEEC2B8ne200100IxLi0EEERKT_
FNA:3,7,_ZNSt3__16chrono8durationIxNS_5ratioILl1ELl1000EEEEC1B8ne200100IiLi0EEERKT_
FNA:3,7,_ZNSt3__16chrono8durationIxNS_5ratioILl1ELl1000EEEEC1B8ne200100IxLi0EEERKT_
FNA:3,7,_ZNSt3__16chrono8durationIxNS_5ratioILl1ELl1000EEEEC2B8ne200100IiLi0EEERKT_
FNA:3,7,_ZNSt3__16chrono8durationIxNS_5ratioILl1ELl1000EEEEC2B8ne200100IxLi0EEERKT_
FNL:4,218,219
FNA:4,5250,_ZNSt3__16chrono8durationIdNS_5ratioILl1ELl1000EEEEC1B8ne200100IxNS2_ILl1ELl1000000000EEELi0EEERKNS1_IT_T0_EE
FNA:4,5250,_ZNSt3__16chrono8durationIdNS_5ratioILl1ELl1000EEEEC2B8ne200100IxNS2_ILl1ELl1000000000EEELi0EEERKNS1_IT_T0_EE
FNA:4,59165,_ZNSt3__16chrono8durationIdNS_5ratioILl1ELl1EEEEC1B8ne200100IxNS2_ILl1ELl1000000000EEELi0EEERKNS1_IT_T0_EE
FNA:4,59165,_ZNSt3__16chrono8durationIdNS_5ratioILl1ELl1EEEEC2B8ne200100IxNS2_ILl1ELl1000000000EEELi0EEERKNS1_IT_T0_EE
FNA:4,500,_ZNSt3__16chrono8durationIeNS_5ratioILl1ELl1000000EEEEC1B8ne200100IeNS2_ILl1ELl1EEELi0EEERKNS1_IT_T0_EE
FNA:4,500,_ZNSt3__16chrono8durationIeNS_5ratioILl1ELl1000000EEEEC1B8ne200100IxS3_Li0EEERKNS1_IT_T0_EE
FNA:4,500,_ZNSt3__16chrono8durationIeNS_5ratioILl1ELl1000000EEEEC2B8ne200100IeNS2_ILl1ELl1EEELi0EEERKNS1_IT_T0_EE
FNA:4,500,_ZNSt3__16chrono8durationIeNS_5ratioILl1ELl1000000EEEEC2B8ne200100IxS3_Li0EEERKNS1_IT_T0_EE
FNA:4,7,_ZNSt3__16chrono8durationIeNS_5ratioILl1ELl1000EEEEC1B8ne200100IeNS2_ILl1ELl1EEELi0EEERKNS1_IT_T0_EE
FNA:4,7,_ZNSt3__16chrono8durationIeNS_5ratioILl1ELl1000EEEEC1B8ne200100IxS3_Li0EEERKNS1_IT_T0_EE
FNA:4,7,_ZNSt3__16chrono8durationIeNS_5ratioILl1ELl1000EEEEC2B8ne200100IeNS2_ILl1ELl1EEELi0EEERKNS1_IT_T0_EE
FNA:4,7,_ZNSt3__16chrono8durationIeNS_5ratioILl1ELl1000EEEEC2B8ne200100IxS3_Li0EEERKNS1_IT_T0_EE
FNA:4,500,_ZNSt3__16chrono8durationIxNS_5ratioILl1ELl1000000000EEEEC1B8ne200100IxNS2_ILl1ELl1000000EEELi0EEERKNS1_IT_T0_EE
FNA:4,7,_ZNSt3__16chrono8durationIxNS_5ratioILl1ELl1000000000EEEEC1B8ne200100IxNS2_ILl1ELl1000EEELi0EEERKNS1_IT_T0_EE
FNA:4,500,_ZNSt3__16chrono8durationIxNS_5ratioILl1ELl1000000000EEEEC2B8ne200100IxNS2_ILl1ELl1000000EEELi0EEERKNS1_IT_T0_EE
FNA:4,7,_ZNSt3__16chrono8durationIxNS_5ratioILl1ELl1000000000EEEEC2B8ne200100IxNS2_ILl1ELl1000EEELi0EEERKNS1_IT_T0_EE
FNL:5,223,223
FNA:5,10500,_ZNKSt3__16chrono8durationIdNS_5ratioILl1ELl1000EEEE5countB8ne200100Ev
FNA:5,118330,_ZNKSt3__16chrono8durationIdNS_5ratioILl1ELl1EEEE5countB8ne200100Ev
FNA:5,2000,_ZNKSt3__16chrono8durationIeNS_5ratioILl1ELl1000000EEEE5countB8ne200100Ev
FNA:5,28,_ZNKSt3__16chrono8durationIeNS_5ratioILl1ELl1000EEEE5countB8ne200100Ev
FNA:5,507,_ZNKSt3__16chrono8durationIeNS_5ratioILl1ELl1EEEE5countB8ne200100Ev
FNA:5,194796,_ZNKSt3__16chrono8durationIxNS_5ratioILl1ELl1000000000EEEE5countB8ne200100Ev
FNA:5,2510,_ZNKSt3__16chrono8durationIxNS_5ratioILl1ELl1000000EEEE5countB8ne200100Ev
FNA:5,35,_ZNKSt3__16chrono8durationIxNS_5ratioILl1ELl1000EEEE5countB8ne200100Ev
FNL:6,233,235
FNA:6,0,_ZNSt3__16chrono8durationIxNS_5ratioILl1ELl1000000000EEEEppB8ne200100Ev
FNL:7,272,273
FNA:7,90,_ZNSt3__16chrono8durationIxNS_5ratioILl1ELl1000000000EEEE4zeroB8ne200100Ev
FNA:7,500,_ZNSt3__16chrono8durationIxNS_5ratioILl1ELl1000000EEEE4zeroB8ne200100Ev
FNA:7,7,_ZNSt3__16chrono8durationIxNS_5ratioILl1ELl1000EEEE4zeroB8ne200100Ev
FNL:8,278,279
FNA:8,0,_ZNSt3__16chrono8durationIxNS_5ratioILl1ELl1000000000EEEE3maxB8ne200100Ev
FNL:9,334,336
FNA:9,500,_ZNKSt3__16chrono13__duration_ltINS0_8durationIxNS_5ratioILl1ELl1000000000EEEEENS2_IxNS3_ILl1ELl1000000EEEEEEclB8ne200100ERKS5_RKS7_
FNA:9,7,_ZNKSt3__16chrono13__duration_ltINS0_8durationIxNS_5ratioILl1ELl1000000000EEEEENS2_IxNS3_ILl1ELl1000EEEEEEclB8ne200100ERKS5_RKS7_
FNA:9,500,_ZNKSt3__16chrono13__duration_ltINS0_8durationIxNS_5ratioILl1ELl1000000EEEEENS2_IeNS3_ILl1ELl1EEEEEEclB8ne200100ERKS5_RKS7_
FNA:9,7,_ZNKSt3__16chrono13__duration_ltINS0_8durationIxNS_5ratioILl1ELl1000EEEEENS2_IeNS3_ILl1ELl1EEEEEEclB8ne200100ERKS5_RKS7_
FNL:10,342,343
FNA:10,500,_ZNKSt3__16chrono13__duration_ltINS0_8durationIxNS_5ratioILl1ELl1000000EEEEES5_EclB8ne200100ERKS5_S8_
FNA:10,7,_ZNKSt3__16chrono13__duration_ltINS0_8durationIxNS_5ratioILl1ELl1000EEEEES5_EclB8ne200100ERKS5_S8_
FNL:11,349,350
FNA:11,500,_ZNSt3__16chronoltB8ne200100IxNS_5ratioILl1ELl1000000000EEExNS2_ILl1ELl1000000EEEEEbRKNS0_8durationIT_T0_EERKNS5_IT1_T2_EE
FNA:11,7,_ZNSt3__16chronoltB8ne200100IxNS_5ratioILl1ELl1000000000EEExNS2_ILl1ELl1000EEEEEbRKNS0_8durationIT_T0_EERKNS5_IT1_T2_EE
FNA:11,500,_ZNSt3__16chronoltB8ne200100IxNS_5ratioILl1ELl1000000EEEeNS2_ILl1ELl1EEEEEbRKNS0_8durationIT_T0_EERKNS5_IT1_T2_EE
FNA:11,500,_ZNSt3__16chronoltB8ne200100IxNS_5ratioILl1ELl1000000EEExS3_EEbRKNS0_8durationIT_T0_EERKNS4_IT1_T2_EE
FNA:11,7,_ZNSt3__16chronoltB8ne200100IxNS_5ratioILl1ELl1000EEEeNS2_ILl1ELl1EEEEEbRKNS0_8durationIT_T0_EERKNS5_IT1_T2_EE
FNA:11,7,_ZNSt3__16chronoltB8ne200100IxNS_5ratioILl1ELl1000EEExS3_EEbRKNS0_8durationIT_T0_EERKNS4_IT1_T2_EE
FNL:12,357,358
FNA:12,500,_ZNSt3__16chronogtB8ne200100IxNS_5ratioILl1ELl1000000EEExS3_EEbRKNS0_8durationIT_T0_EERKNS4_IT1_T2_EE
FNA:12,7,_ZNSt3__16chronogtB8ne200100IxNS_5ratioILl1ELl1000EEExS3_EEbRKNS0_8durationIT_T0_EERKNS4_IT1_T2_EE
FNL:13,404,406
FNA:13,64425,_ZNSt3__16chronomiB8ne200100IxNS_5ratioILl1ELl1000000000EEExS3_EENS_11common_typeIJNS0_8durationIT_T0_EENS5_IT1_T2_EEEE4typeERKS8_RKSB_
FNL:14,72,73
FNA:14,500,_ZNKSt3__16chrono15__duration_castINS0_8durationIxNS_5ratioILl1ELl1000000EEEEENS2_IeS4_EENS3_ILl1ELl1EEELb1ELb1EEclB8ne200100ERKS5_
FNA:14,7,_ZNKSt3__16chrono15__duration_castINS0_8durationIxNS_5ratioILl1ELl1000EEEEENS2_IeS4_EENS3_ILl1ELl1EEELb1ELb1EEclB8ne200100ERKS5_
FNL:15,79,82
FNA:15,5250,_ZNKSt3__16chrono15__duration_castINS0_8durationIxNS_5ratioILl1ELl1000000000EEEEENS2_IdNS3_ILl1ELl1000EEEEENS3_ILl1ELl1000000EEELb1ELb0EEclB8ne200100ERKS5_
FNA:15,59165,_ZNKSt3__16chrono15__duration_castINS0_8durationIxNS_5ratioILl1ELl1000000000EEEEENS2_IdNS3_ILl1ELl1EEEEES4_Lb1ELb0EEclB8ne200100ERKS5_
FNA:15,10,_ZNKSt3__16chrono15__duration_castINS0_8durationIxNS_5ratioILl1ELl1000000000EEEEENS2_IxNS3_ILl1ELl1000000EEEEENS3_ILl1ELl1000EEELb1ELb0EEclB8ne200100ERKS5_
FNL:16,88,91
FNA:16,500,_ZNKSt3__16chrono15__duration_castINS0_8durationIeNS_5ratioILl1ELl1EEEEENS2_IeNS3_ILl1ELl1000000EEEEENS3_ILl1000000ELl1EEELb0ELb1EEclB8ne200100ERKS5_
FNA:16,7,_ZNKSt3__16chrono15__duration_castINS0_8durationIeNS_5ratioILl1ELl1EEEEENS2_IeNS3_ILl1ELl1000EEEEENS3_ILl1000ELl1EEELb0ELb1EEclB8ne200100ERKS5_
FNA:16,1000,_ZNKSt3__16chrono15__duration_castINS0_8durationIxNS_5ratioILl1ELl1000000EEEEENS2_IxNS3_ILl1ELl1000000000EEEEENS3_ILl1000ELl1EEELb0ELb1EEclB8ne200100ERKS5_
FNA:16,14,_ZNKSt3__16chrono15__duration_castINS0_8durationIxNS_5ratioILl1ELl1000EEEEENS2_IxNS3_ILl1ELl1000000000EEEEENS3_ILl1000000ELl1EEELb0ELb1EEclB8ne200100ERKS5_
FNF:17
FNH:14
DA:72,507
DA:73,507
DA:79,64425
DA:81,64425
DA:82,64425
DA:88,1521
DA:90,1521
DA:91,1521
DA:105,66453
DA:106,66453
DA:120,597
DA:121,0
DA:209,263964
DA:218,131872
DA:219,131872
DA:223,328706
DA:233,0
DA:234,0
DA:235,0
DA:272,597
DA:273,597
DA:278,0
DA:279,0
DA:334,1014
DA:336,1014
DA:342,507
DA:343,507
DA:349,1521
DA:350,1521
DA:357,507
DA:358,507
DA:404,64425
DA:406,64425
LF:33
LH:27
end_of_record
TN:
SF:/Library/Developer/CommandLineTools/SDKs/MacOSX.sdk/usr/include/c++/v1/__chrono/time_point.h
FNL:0,209,210
FNA:0,64425,_ZNSt3__16chronomiB8ne200100INS0_12steady_clockENS0_8durationIxNS_5ratioILl1ELl1000000000EEEEES6_EENS_11common_typeIJT0_T1_EE4typeERKNS0_10time_pointIT_S8_EERKNSC_ISD_S9_EE
FNL:1,47,47
FNA:1,90,_ZNSt3__16chrono10time_pointINS0_12steady_clockENS0_8durationIxNS_5ratioILl1ELl1000000000EEEEEEC1B8ne200100Ev
FNA:1,90,_ZNSt3__16chrono10time_pointINS0_12steady_clockENS0_8durationIxNS_5ratioILl1ELl1000000000EEEEEEC2B8ne200100Ev
FNL:2,57,57
FNA:2,128850,_ZNKSt3__16chrono10time_pointINS0_12steady_clockENS0_8durationIxNS_5ratioILl1ELl1000000000EEEEEE16time_since_epochB8ne200100Ev
FNF:3
FNH:3
DA:47,180
DA:57,128850
DA:209,64425
DA:210,64425
LF:4
LH:4
end_of_record
TN:
SF:/Library/Developer/CommandLineTools/SDKs/MacOSX.sdk/usr/include/c++/v1/__debug_utils/sanitizers.h
FNL:0,53,77
FNA:0,12,_ZNSt3__144__annotate_double_ended_contiguous_containerB8ne200100INS_9allocatorIN2cv3MatEEEEEvPKvS6_S6_S6_S6_S6_
FNF:1
FNH:1
DA:53,12
DA:77,12
LF:2
LH:2
end_of_record
TN:
SF:/Library/Developer/CommandLineTools/SDKs/MacOSX.sdk/usr/include/c++/v1/__functional/identity.h
FNL:0,29,30
FNA:0,10340,_ZNKSt3__110__identityclB8ne200100IRKdEEOT_S5_
FNF:1
FNH:1
DA:29,10340
DA:30,10340
LF:2
LH:2
end_of_record
TN:
SF:/Library/Developer/CommandLineTools/SDKs/MacOSX.sdk/usr/include/c++/v1/__iterator/advance.h
FNL:0,57,59
FNA:0,5,_ZNSt3__19__advanceB8ne200100INS_11__wrap_iterIPN2cv3MatEEEEEvRT_NS_15iterator_traitsIS6_E15difference_typeENS_26random_access_iterator_tagE
FNA:0,0,_ZNSt3__19__advanceB8ne200100IPN2cv6Point_IfEEEEvRT_NS_15iterator_traitsIS5_E15difference_typeENS_26random_access_iterator_tagE
FNL:1,65,72
FNA:1,5,_ZNSt3__17advanceB8ne200100INS_11__wrap_iterIPN2cv3MatEEEllLi0EEEvRT_T0_
FNA:1,0,_ZNSt3__17advanceB8ne200100IPN2cv6Point_IfEEllLi0EEEvRT_T0_
FNF:2
FNH:2
DA:57,5
DA:58,5
DA:59,5
DA:65,5
DA:67,5
DA:71,5
DA:72,5
LF:7
LH:7
end_of_record
TN:
SF:/Library/Developer/CommandLineTools/SDKs/MacOSX.sdk/usr/include/c++/v1/__iterator/distance.h
FNL:0,40,41
FNA:0,20,_ZNSt3__110__distanceB8ne200100INS_11__wrap_iterIPN2cv3MatEEEEENS_15iterator_traitsIT_E15difference_typeES7_S7_NS_26random_access_iterator_tagE
FNA:0,0,_ZNSt3__110__distanceB8ne200100INS_11__wrap_iterIPdEEEENS_15iterator_traitsIT_E15difference_typeES5_S5_NS_26random_access_iterator_tagE
FNA:0,0,_ZNSt3__110__distanceB8ne200100INS_13move_iteratorIPPN2cv3MatEEEEENS_15iterator_traitsIT_E15difference_typeES8_S8_NS_26random_access_iterator_tagE
FNA:0,12,_ZNSt3__110__distanceB8ne200100INS_16__deque_iteratorIN2cv3MatEPKS3_RS4_PKS5_lLl42EEEEENS_15iterator_traitsIT_E15difference_typeESB_SB_NS_26random_access_iterator_tagE
FNA:0,0,_ZNSt3__110__distanceB8ne200100IPN2cv6Point_IfEEEENS_15iterator_traitsIT_E15difference_typeES6_S6_NS_26random_access_iterator_tagE
FNL:1,46,47
FNA:1,20,_ZNSt3__18distanceB8ne200100INS_11__wrap_iterIPN2cv3MatEEEEENS_15iterator_traitsIT_E15difference_typeES7_S7_
FNA:1,0,_ZNSt3__18distanceB8ne200100INS_11__wrap_iterIPdEEEENS_15iterator_traitsIT_E15difference_typeES5_S5_
FNA:1,0,_ZNSt3__18distanceB8ne200100INS_13move_iteratorIPPN2cv3MatEEEEENS_15iterator_traitsIT_E15difference_typeES8_S8_
FNA:1,12,_ZNSt3__18distanceB8ne200100INS_16__deque_iteratorIN2cv3MatEPKS3_RS4_PKS5_lLl42EEEEENS_15iterator_traitsIT_E15difference_typeESB_SB_
FNA:1,0,_ZNSt3__18distanceB8ne200100IPN2cv6Point_IfEEEENS_15iterator_traitsIT_E15difference_typeES6_S6_
FNF:2
FNH:2
DA:40,32
DA:41,32
DA:46,32
DA:47,32
LF:4
LH:4
end_of_record
TN:
SF:/Library/Developer/CommandLineTools/SDKs/MacOSX.sdk/usr/include/c++/v1/__iterator/move_iterator.h
FNL:0,112,112
FNA:0,0,_ZNSt3__113move_iteratorIPPN2cv3MatEEC1B8ne200100ES4_
FNA:0,0,_ZNSt3__113move_iteratorIPPN2cv3MatEEC2B8ne200100ES4_
FNL:1,114,116
FNA:1,0,_ZNSt3__113move_iteratorIPPN2cv3MatEEppB8ne200100Ev
FNL:2,172,172
FNA:2,0,_ZNKSt3__113move_iteratorIPPN2cv3MatEE4baseB8ne200100Ev
FNL:3,174,175
FNA:3,0,_ZNKSt3__113move_iteratorIPPN2cv3MatEEdeB8ne200100Ev
FNL:4,303,304
FNA:4,0,_ZNSt3__1miB8ne200100IPPN2cv3MatES4_EEDTmicldtfp_4baseEcldtfp0_4baseEERKNS_13move_iteratorIT_EERKNS6_IT0_EE
FNF:5
FNH:0
DA:112,0
DA:114,0
DA:115,0
DA:116,0
DA:172,0
DA:174,0
DA:175,0
DA:303,0
DA:304,0
LF:9
LH:0
end_of_record
TN:
SF:/Library/Developer/CommandLineTools/SDKs/MacOSX.sdk/usr/include/c++/v1/__iterator/next.h
FNL:0,29,36
FNA:0,5,_ZNSt3__14nextB8ne200100INS_11__wrap_iterIPN2cv3MatEEELi0EEET_S6_NS_15iterator_traitsIS6_E15difference_typeE
FNA:0,0,_ZNSt3__14nextB8ne200100IPN2cv6Point_IfEELi0EEET_S5_NS_15iterator_traitsIS5_E15difference_typeE
FNF:1
FNH:1
DA:29,5
DA:35,5
DA:36,5
LF:3
LH:3
end_of_record
TN:
SF:/Library/Developer/CommandLineTools/SDKs/MacOSX.sdk/usr/include/c++/v1/__iterator/ostreambuf_iterator.h
FNL:0,56,56
FNA:0,72772,_ZNSt3__119ostreambuf_iteratorIcNS_11char_traitsIcEEEC1B8ne200100ERNS_13basic_ostreamIcS2_EE
FNA:0,72772,_ZNSt3__119ostreambuf_iteratorIcNS_11char_traitsIcEEEC2B8ne200100ERNS_13basic_ostreamIcS2_EE
FNL:1,66,66
FNA:1,72772,_ZNKSt3__119ostreambuf_iteratorIcNS_11char_traitsIcEEE6failedB8ne200100Ev
FNF:2
FNH:2
DA:56,145544
DA:66,72772
LF:2
LH:2
end_of_record
TN:
SF:/Library/Developer/CommandLineTools/SDKs/MacOSX.sdk/usr/include/c++/v1/__iterator/reverse_iterator.h
FNL:0,129,129
FNA:0,0,_ZNKSt3__116reverse_iteratorIPN14StabilizerCore16StabilizerParamsEE4baseB8ne200100Ev
FNA:0,0,_ZNKSt3__116reverse_iteratorIPN2cv3MatEE4baseB8ne200100Ev
FNA:0,0,_ZNKSt3__116reverse_iteratorIPNS_12basic_stringIcNS_11char_traitsIcEENS_9allocatorIcEEEEE4baseB8ne200100Ev
FNA:0,0,_ZNKSt3__116reverse_iteratorIPNS_4pairIiiEEE4baseB8ne200100Ev
FNA:0,0,_ZNKSt3__116reverse_iteratorIPNS_6vectorIN2cv3MatENS_9allocatorIS3_EEEEE4baseB8ne200100Ev
FNA:0,0,_ZNKSt3__116reverse_iteratorIPP14StabilizerCoreE4baseB8ne200100Ev
FNA:0,0,_ZNKSt3__116reverse_iteratorIPiE4baseB8ne200100Ev
FNL:1,130,133
FNA:1,0,_ZNKSt3__116reverse_iteratorIPN14StabilizerCore16StabilizerParamsEEdeB8ne200100Ev
FNA:1,0,_ZNKSt3__116reverse_iteratorIPN2cv3MatEEdeB8ne200100Ev
FNA:1,0,_ZNKSt3__116reverse_iteratorIPNS_12basic_stringIcNS_11char_traitsIcEENS_9allocatorIcEEEEEdeB8ne200100Ev
FNA:1,0,_ZNKSt3__116reverse_iteratorIPNS_4pairIiiEEEdeB8ne200100Ev
FNA:1,0,_ZNKSt3__116reverse_iteratorIPNS_6vectorIN2cv3MatENS_9allocatorIS3_EEEEEdeB8ne200100Ev
FNA:1,0,_ZNKSt3__116reverse_iteratorIPP14StabilizerCoreEdeB8ne200100Ev
FNA:1,0,_ZNKSt3__116reverse_iteratorIPiEdeB8ne200100Ev
FNL:2,148,148
FNA:2,0,_ZNKSt3__116reverse_iteratorIPN14StabilizerCore16StabilizerParamsEEptB8ne200100Ev
FNA:2,0,_ZNKSt3__116reverse_iteratorIPN2cv3MatEEptB8ne200100Ev
FNA:2,0,_ZNKSt3__116reverse_iteratorIPNS_12basic_stringIcNS_11char_traitsIcEENS_9allocatorIcEEEEEptB8ne200100Ev
FNA:2,0,_ZNKSt3__116reverse_iteratorIPNS_4pairIiiEEEptB8ne200100Ev
FNA:2,0,_ZNKSt3__116reverse_iteratorIPNS_6vectorIN2cv3MatENS_9allocatorIS3_EEEEEptB8ne200100Ev
FNA:2,0,_ZNKSt3__116reverse_iteratorIPP14StabilizerCoreEptB8ne200100Ev
FNA:2,0,_ZNKSt3__116reverse_iteratorIPiEptB8ne200100Ev
FNL:3,151,153
FNA:3,0,_ZNSt3__116reverse_iteratorIPN14StabilizerCore16StabilizerParamsEEppB8ne200100Ev
FNA:3,0,_ZNSt3__116reverse_iteratorIPN2cv3MatEEppB8ne200100Ev
FNA:3,0,_ZNSt3__116reverse_iteratorIPNS_12basic_stringIcNS_11char_traitsIcEENS_9allocatorIcEEEEEppB8ne200100Ev
FNA:3,0,_ZNSt3__116reverse_iteratorIPNS_4pairIiiEEEppB8ne200100Ev
FNA:3,0,_ZNSt3__116reverse_iteratorIPNS_6vectorIN2cv3MatENS_9allocatorIS3_EEEEEppB8ne200100Ev
FNA:3,0,_ZNSt3__116reverse_iteratorIPP14StabilizerCoreEppB8ne200100Ev
FNA:3,0,_ZNSt3__116reverse_iteratorIPiEppB8ne200100Ev
FNL:4,232,239
FNA:4,0,_ZNSt3__1neB8ne200100IPN14StabilizerCore16StabilizerParamsES3_EEbRKNS_16reverse_iteratorIT_EERKNS4_IT0_EE
FNA:4,0,_ZNSt3__1neB8ne200100IPN2cv3MatES3_EEbRKNS_16reverse_iteratorIT_EERKNS4_IT0_EE
FNA:4,0,_ZNSt3__1neB8ne200100IPNS_12basic_stringIcNS_11char_traitsIcEENS_9allocatorIcEEEES7_EEbRKNS_16reverse_iteratorIT_EERKNS8_IT0_EE
FNA:4,0,_ZNSt3__1neB8ne200100IPNS_4pairIiiEES3_EEbRKNS_16reverse_iteratorIT_EERKNS4_IT0_EE
FNA:4,0,_ZNSt3__1neB8ne200100IPNS_6vectorIN2cv3MatENS_9allocatorIS3_EEEES7_EEbRKNS_16reverse_iteratorIT_EERKNS8_IT0_EE
FNA:4,0,_ZNSt3__1neB8ne200100IPP14StabilizerCoreS3_EEbRKNS_16reverse_iteratorIT_EERKNS4_IT0_EE
FNA:4,0,_ZNSt3__1neB8ne200100IPiS1_EEbRKNS_16reverse_iteratorIT_EERKNS2_IT0_EE
FNL:5,97,97
FNA:5,0,_ZNSt3__116reverse_iteratorIPN14StabilizerCore16StabilizerParamsEEC1B8ne200100ES3_
FNA:5,0,_ZNSt3__116reverse_iteratorIPN14StabilizerCore16StabilizerParamsEEC2B8ne200100ES3_
FNA:5,0,_ZNSt3__116reverse_iteratorIPN2cv3MatEEC1B8ne200100ES3_
FNA:5,0,_ZNSt3__116reverse_iteratorIPN2cv3MatEEC2B8ne200100ES3_
FNA:5,0,_ZNSt3__116reverse_iteratorIPNS_12basic_stringIcNS_11char_traitsIcEENS_9allocatorIcEEEEEC1B8ne200100ES7_
FNA:5,0,_ZNSt3__116reverse_iteratorIPNS_12basic_stringIcNS_11char_traitsIcEENS_9allocatorIcEEEEEC2B8ne200100ES7_
FNA:5,0,_ZNSt3__116reverse_iteratorIPNS_4pairIiiEEEC1B8ne200100ES3_
FNA:5,0,_ZNSt3__116reverse_iteratorIPNS_4pairIiiEEEC2B8ne200100ES3_
FNA:5,0,_ZNSt3__116reverse_iteratorIPNS_6vectorIN2cv3MatENS_9allocatorIS3_EEEEEC1B8ne200100ES7_
FNA:5,0,_ZNSt3__116reverse_iteratorIPNS_6vectorIN2cv3MatENS_9allocatorIS3_EEEEEC2B8ne200100ES7_
FNA:5,0,_ZNSt3__116reverse_iteratorIPP14StabilizerCoreEC1B8ne200100ES3_
FNA:5,0,_ZNSt3__116reverse_iteratorIPP14StabilizerCoreEC2B8ne200100ES3_
FNA:5,0,_ZNSt3__116reverse_iteratorIPiEC1B8ne200100ES1_
FNA:5,0,_ZNSt3__116reverse_iteratorIPiEC2B8ne200100ES1_
FNF:6
FNH:0
DA:97,0
DA:129,0
DA:130,0
DA:131,0
DA:132,0
DA:133,0
DA:148,0
DA:151,0
DA:152,0
DA:153,0
DA:232,0
DA:239,0
LF:12
LH:0
end_of_record
TN:
SF:/Library/Developer/CommandLineTools/SDKs/MacOSX.sdk/usr/include/c++/v1/__iterator/wrap_iter.h
FNL:0,103,103
FNA:0,28170,_ZNKSt3__111__wrap_iterIPKN2cv3MatEE4baseB8ne200100Ev
FNA:0,42640,_ZNKSt3__111__wrap_iterIPKdE4baseB8ne200100Ev
FNA:0,50,_ZNKSt3__111__wrap_iterIPN14StabilizerCore16StabilizerParamsEE4baseB8ne200100Ev
FNA:0,99214,_ZNKSt3__111__wrap_iterIPN2cv3MatEE4baseB8ne200100Ev
FNA:0,924,_ZNKSt3__111__wrap_iterIPNS_10unique_ptrI14StabilizerCoreNS_14default_deleteIS2_EEEEE4baseB8ne200100Ev
FNA:0,60,_ZNKSt3__111__wrap_iterIPNS_12basic_stringIcNS_11char_traitsIcEENS_9allocatorIcEEEEE4baseB8ne200100Ev
FNA:0,50,_ZNKSt3__111__wrap_iterIPNS_4pairIiiEEE4baseB8ne200100Ev
FNA:0,0,_ZNKSt3__111__wrap_iterIPdE4baseB8ne200100Ev
FNA:0,80,_ZNKSt3__111__wrap_iterIPiE4baseB8ne200100Ev
FNL:1,106,106
FNA:1,550,_ZNSt3__111__wrap_iterIPKN2cv3MatEEC1B8ne200100ES4_
FNA:1,550,_ZNSt3__111__wrap_iterIPKN2cv3MatEEC2B8ne200100ES4_
FNA:1,640,_ZNSt3__111__wrap_iterIPKdEC1B8ne200100ES2_
FNA:1,640,_ZNSt3__111__wrap_iterIPKdEC2B8ne200100ES2_
FNA:1,10,_ZNSt3__111__wrap_iterIPN14StabilizerCore16StabilizerParamsEEC1B8ne200100ES3_
FNA:1,10,_ZNSt3__111__wrap_iterIPN14StabilizerCore16StabilizerParamsEEC2B8ne200100ES3_
FNA:1,2094,_ZNSt3__111__wrap_iterIPN2cv3MatEEC1B8ne200100ES3_
FNA:1,2094,_ZNSt3__111__wrap_iterIPN2cv3MatEEC2B8ne200100ES3_
FNA:1,144,_ZNSt3__111__wrap_iterIPNS_10unique_ptrI14StabilizerCoreNS_14default_deleteIS2_EEEEEC1B8ne200100ES6_
FNA:1,144,_ZNSt3__111__wrap_iterIPNS_10unique_ptrI14StabilizerCoreNS_14default_deleteIS2_EEEEEC2B8ne200100ES6_
FNA:1,10,_ZNSt3__111__wrap_iterIPNS_12basic_stringIcNS_11char_traitsIcEENS_9allocatorIcEEEEEC1B8ne200100ES7_
FNA:1,10,_ZNSt3__111__wrap_iterIPNS_12basic_stringIcNS_11char_traitsIcEENS_9allocatorIcEEEEEC2B8ne200100ES7_
FNA:1,10,_ZNSt3__111__wrap_iterIPNS_4pairIiiEEEC1B8ne200100ES3_
FNA:1,10,_ZNSt3__111__wrap_iterIPNS_4pairIiiEEEC2B8ne200100ES3_
FNA:1,0,_ZNSt3__111__wrap_iterIPdEC1B8ne200100ES1_
FNA:1,0,_ZNSt3__111__wrap_iterIPdEC2B8ne200100ES1_
FNA:1,20,_ZNSt3__111__wrap_iterIPiEC1B8ne200100ES1_
FNA:1,20,_ZNSt3__111__wrap_iterIPiEC2B8ne200100ES1_
FNL:2,124,125
FNA:2,14075,_ZNSt3__1eqB8ne200100IPKN2cv3MatEEEbRKNS_11__wrap_iterIT_EES9_
FNA:2,21320,_ZNSt3__1eqB8ne200100IPKdEEbRKNS_11__wrap_iterIT_EES7_
FNA:2,25,_ZNSt3__1eqB8ne200100IPN14StabilizerCore16StabilizerParamsEEEbRKNS_11__wrap_iterIT_EES8_
FNA:2,49572,_ZNSt3__1eqB8ne200100IPN2cv3MatEEEbRKNS_11__wrap_iterIT_EES8_
FNA:2,462,_ZNSt3__1eqB8ne200100IPNS_10unique_ptrI14StabilizerCoreNS_14default_deleteIS2_EEEEEEbRKNS_11__wrap_iterIT_EESB_
FNA:2,30,_ZNSt3__1eqB8ne200100IPNS_12basic_stringIcNS_11char_traitsIcEENS_9allocatorIcEEEEEEbRKNS_11__wrap_iterIT_EESC_
FNA:2,25,_ZNSt3__1eqB8ne200100IPNS_4pairIiiEEEEbRKNS_11__wrap_iterIT_EES8_
FNA:2,40,_ZNSt3__1eqB8ne200100IPiEEbRKNS_11__wrap_iterIT_EES6_
FNL:3,149,150
FNA:3,14075,_ZNSt3__1neB8ne200100IPKN2cv3MatEEEbRKNS_11__wrap_iterIT_EES9_
FNA:3,21240,_ZNSt3__1neB8ne200100IPKdEEbRKNS_11__wrap_iterIT_EES7_
FNA:3,25,_ZNSt3__1neB8ne200100IPN14StabilizerCore16StabilizerParamsEEEbRKNS_11__wrap_iterIT_EES8_
FNA:3,49572,_ZNSt3__1neB8ne200100IPN2cv3MatEEEbRKNS_11__wrap_iterIT_EES8_
FNA:3,462,_ZNSt3__1neB8ne200100IPNS_10unique_ptrI14StabilizerCoreNS_14default_deleteIS2_EEEEEEbRKNS_11__wrap_iterIT_EESB_
FNA:3,30,_ZNSt3__1neB8ne200100IPNS_12basic_stringIcNS_11char_traitsIcEENS_9allocatorIcEEEEEEbRKNS_11__wrap_iterIT_EESC_
FNA:3,25,_ZNSt3__1neB8ne200100IPNS_4pairIiiEEEEbRKNS_11__wrap_iterIT_EES8_
FNA:3,40,_ZNSt3__1neB8ne200100IPiEEbRKNS_11__wrap_iterIT_EES6_
FNL:4,216,223
FNA:4,20,_ZNSt3__1miB8ne200100IPKN2cv3MatEPS2_EEDTmicldtfp_4baseEcldtfp0_4baseEERKNS_11__wrap_iterIT_EERKNS7_IT0_EE
FNA:4,20,_ZNSt3__1miB8ne200100IPN2cv3MatES3_EEDTmicldtfp_4baseEcldtfp0_4baseEERKNS_11__wrap_iterIT_EERKNS5_IT0_EE
FNA:4,0,_ZNSt3__1miB8ne200100IPdS1_EEDTmicldtfp_4baseEcldtfp0_4baseEERKNS_11__wrap_iterIT_EERKNS3_IT0_EE
FNL:5,244,245
FNA:5,10,_ZNSt3__114pointer_traitsINS_11__wrap_iterIPN2cv3MatEEEE10to_addressB8ne200100ES5_
FNA:5,0,_ZNSt3__114pointer_traitsINS_11__wrap_iterIPdEEE10to_addressB8ne200100ES3_
FNL:6,58,59
FNA:6,20,_ZNSt3__111__wrap_iterIPKN2cv3MatEEC1B8ne200100IPS2_Li0EEERKNS0_IT_EE
FNA:6,20,_ZNSt3__111__wrap_iterIPKN2cv3MatEEC2B8ne200100IPS2_Li0EEERKNS0_IT_EE
FNL:7,60,60
FNA:7,13800,_ZNKSt3__111__wrap_iterIPKN2cv3MatEEdeB8ne200100Ev
FNA:7,31340,_ZNKSt3__111__wrap_iterIPKdEdeB8ne200100Ev
FNA:7,20,_ZNKSt3__111__wrap_iterIPN14StabilizerCore16StabilizerParamsEEdeB8ne200100Ev
FNA:7,48725,_ZNKSt3__111__wrap_iterIPN2cv3MatEEdeB8ne200100Ev
FNA:7,390,_ZNKSt3__111__wrap_iterIPNS_10unique_ptrI14StabilizerCoreNS_14default_deleteIS2_EEEEEdeB8ne200100Ev
FNA:7,25,_ZNKSt3__111__wrap_iterIPNS_12basic_stringIcNS_11char_traitsIcEENS_9allocatorIcEEEEEdeB8ne200100Ev
FNA:7,20,_ZNKSt3__111__wrap_iterIPNS_4pairIiiEEEdeB8ne200100Ev
FNA:7,30,_ZNKSt3__111__wrap_iterIPiEdeB8ne200100Ev
FNL:8,64,66
FNA:8,13800,_ZNSt3__111__wrap_iterIPKN2cv3MatEEppB8ne200100Ev
FNA:8,21000,_ZNSt3__111__wrap_iterIPKdEppB8ne200100Ev
FNA:8,20,_ZNSt3__111__wrap_iterIPN14StabilizerCore16StabilizerParamsEEppB8ne200100Ev
FNA:8,48725,_ZNSt3__111__wrap_iterIPN2cv3MatEEppB8ne200100Ev
FNA:8,390,_ZNSt3__111__wrap_iterIPNS_10unique_ptrI14StabilizerCoreNS_14default_deleteIS2_EEEEEppB8ne200100Ev
FNA:8,25,_ZNSt3__111__wrap_iterIPNS_12basic_stringIcNS_11char_traitsIcEENS_9allocatorIcEEEEEppB8ne200100Ev
FNA:8,20,_ZNSt3__111__wrap_iterIPNS_4pairIiiEEEppB8ne200100Ev
FNA:8,30,_ZNSt3__111__wrap_iterIPiEppB8ne200100Ev
FNL:9,83,86
FNA:9,0,_ZNKSt3__111__wrap_iterIPN2cv3MatEEplB8ne200100El
FNA:9,0,_ZNKSt3__111__wrap_iterIPdEplB8ne200100El
FNL:10,88,90
FNA:10,5,_ZNSt3__111__wrap_iterIPN2cv3MatEEpLB8ne200100El
FNA:10,0,_ZNSt3__111__wrap_iterIPdEpLB8ne200100El
FNF:11
FNH:10
DA:58,40
DA:59,40
DA:60,94350
DA:64,84010
DA:65,84010
DA:66,84010
DA:83,0
DA:84,0
DA:85,0
DA:86,0
DA:88,5
DA:89,5
DA:90,5
DA:103,171188
DA:106,6956
DA:124,85549
DA:125,85549
DA:149,85469
DA:150,85469
DA:216,40
DA:223,40
DA:244,10
DA:245,10
LF:23
LH:19
end_of_record
TN:
SF:/Library/Developer/CommandLineTools/SDKs/MacOSX.sdk/usr/include/c++/v1/__locale
FNL:0,171
FNA:0,72786,_ZNSt3__19use_facetB8ne200100INS_5ctypeIcEEEERKT_RKNS_6localeE
FNL:1,571
FNA:1,72786,_ZNKSt3__15ctypeIcE5widenB8ne200100Ec
FNF:2
FNH:2
DA:171,72786
DA:172,72786
DA:571,72786
LF:3
LH:3
end_of_record
TN:
SF:/Library/Developer/CommandLineTools/SDKs/MacOSX.sdk/usr/include/c++/v1/__locale_dir/pad_and_output.h
FNL:0,44,82
FNA:0,72772,_ZNSt3__116__pad_and_outputB8ne200100IcNS_11char_traitsIcEEEENS_19ostreambuf_iteratorIT_T0_EES6_PKS4_S8_S8_RNS_8ios_baseES4_
FNF:1
FNH:1
DA:44,72772
DA:51,72772
DA:52,0
DA:53,72772
DA:54,72772
DA:55,72772
DA:56,0
DA:58,72772
DA:59,72772
DA:60,72772
DA:61,0
DA:62,0
DA:63,0
DA:65,0
DA:66,72772
DA:67,0
DA:68,0
DA:69,0
DA:70,0
DA:72,0
DA:73,72772
DA:74,72772
DA:75,72772
DA:76,0
DA:77,0
DA:79,72772
DA:80,72772
DA:81,72772
DA:82,72772
LF:29
LH:16
end_of_record
TN:
SF:/Library/Developer/CommandLineTools/SDKs/MacOSX.sdk/usr/include/c++/v1/__memory/allocate_at_least.h
FNL:0,40,41
FNA:0,5,_ZNSt3__119__allocate_at_leastB8ne200100INS_9allocatorIN14StabilizerCore16StabilizerParamsEEEEENS_19__allocation_resultINS_16allocator_traitsIT_E7pointerEEERS7_m
FNA:0,7281,_ZNSt3__119__allocate_at_leastB8ne200100INS_9allocatorIN2cv3MatEEEEENS_19__allocation_resultINS_16allocator_traitsIT_E7pointerEEERS7_m
FNA:0,58400,_ZNSt3__119__allocate_at_leastB8ne200100INS_9allocatorIN2cv6Point_IfEEEEEENS_19__allocation_resultINS_16allocator_traitsIT_E7pointerEEERS8_m
FNA:0,165,_ZNSt3__119__allocate_at_leastB8ne200100INS_9allocatorINS_10unique_ptrI14StabilizerCoreNS_14default_deleteIS3_EEEEEEEENS_19__allocation_resultINS_16allocator_traitsIT_E7pointerEEERSA_m
FNA:0,55,_ZNSt3__119__allocate_at_leastB8ne200100INS_9allocatorINS_12basic_stringIcNS_11char_traitsIcEENS1_IcEEEEEEEENS_19__allocation_resultINS_16allocator_traitsIT_E7pointerEEERSA_m
FNA:0,5,_ZNSt3__119__allocate_at_leastB8ne200100INS_9allocatorINS_4pairIiiEEEEEENS_19__allocation_resultINS_16allocator_traitsIT_E7pointerEEERS7_m
FNA:0,115,_ZNSt3__119__allocate_at_leastB8ne200100INS_9allocatorINS_6vectorIN2cv3MatENS1_IS4_EEEEEEEENS_19__allocation_resultINS_16allocator_traitsIT_E7pointerEEERSA_m
FNA:0,115,_ZNSt3__119__allocate_at_leastB8ne200100INS_9allocatorIP14StabilizerCoreEEEENS_19__allocation_resultINS_16allocator_traitsIT_E7pointerEEERS7_m
FNA:0,553,_ZNSt3__119__allocate_at_leastB8ne200100INS_9allocatorIPN2cv3MatEEEEENS_19__allocation_resultINS_16allocator_traitsIT_E7pointerEEERS8_m
FNA:0,1183,_ZNSt3__119__allocate_at_leastB8ne200100INS_9allocatorIcEEEENS_19__allocation_resultINS_16allocator_traitsIT_E7pointerEEERS5_m
FNA:0,585,_ZNSt3__119__allocate_at_leastB8ne200100INS_9allocatorIdEEEENS_19__allocation_resultINS_16allocator_traitsIT_E7pointerEEERS5_m
FNA:0,57691,_ZNSt3__119__allocate_at_leastB8ne200100INS_9allocatorIfEEEENS_19__allocation_resultINS_16allocator_traitsIT_E7pointerEEERS5_m
FNA:0,57691,_ZNSt3__119__allocate_at_leastB8ne200100INS_9allocatorIhEEEENS_19__allocation_resultINS_16allocator_traitsIT_E7pointerEEERS5_m
FNA:0,10,_ZNSt3__119__allocate_at_leastB8ne200100INS_9allocatorIiEEEENS_19__allocation_resultINS_16allocator_traitsIT_E7pointerEEERS5_m
FNF:1
FNH:1
DA:40,183854
DA:41,183854
LF:2
LH:2
end_of_record
TN:
SF:/Library/Developer/CommandLineTools/SDKs/MacOSX.sdk/usr/include/c++/v1/__memory/allocator.h
FNL:0,116,122
FNA:0,5,_ZNSt3__19allocatorIN14StabilizerCore16StabilizerParamsEE10deallocateB8ne200100EPS2_m
FNA:0,7834,_ZNSt3__19allocatorIN2cv3MatEE10deallocateB8ne200100EPS2_m
FNA:0,58485,_ZNSt3__19allocatorIN2cv6Point_IfEEE10deallocateB8ne200100EPS3_m
FNA:0,30,_ZNSt3__19allocatorIN2cv6Point_IiEEE10deallocateB8ne200100EPS3_m
FNA:0,165,_ZNSt3__19allocatorINS_10unique_ptrI14StabilizerCoreNS_14default_deleteIS2_EEEEE10deallocateB8ne200100EPS5_m
FNA:0,55,_ZNSt3__19allocatorINS_12basic_stringIcNS_11char_traitsIcEENS0_IcEEEEE10deallocateB8ne200100EPS5_m
FNA:0,5,_ZNSt3__19allocatorINS_4pairIiiEEE10deallocateB8ne200100EPS2_m
FNA:0,115,_ZNSt3__19allocatorINS_6vectorIN2cv3MatENS0_IS3_EEEEE10deallocateB8ne200100EPS5_m
FNA:0,115,_ZNSt3__19allocatorIP14StabilizerCoreE10deallocateB8ne200100EPS2_m
FNA:0,553,_ZNSt3__19allocatorIPN2cv3MatEE10deallocateB8ne200100EPS3_m
FNA:0,54,_ZNSt3__19allocatorIcE10deallocateB8ne200100EPcm
FNA:0,585,_ZNSt3__19allocatorIdE10deallocateB8ne200100EPdm
FNA:0,57691,_ZNSt3__19allocatorIfE10deallocateB8ne200100EPfm
FNA:0,57691,_ZNSt3__19allocatorIhE10deallocateB8ne200100EPhm
FNA:0,10,_ZNSt3__19allocatorIiE10deallocateB8ne200100EPim
FNL:1,147,148
FNA:1,10,_ZNKSt3__19allocatorIN14StabilizerCore16StabilizerParamsEE8max_sizeB8ne200100Ev
FNA:1,15115,_ZNKSt3__19allocatorIN2cv3MatEE8max_sizeB8ne200100Ev
FNA:1,116800,_ZNKSt3__19allocatorIN2cv6Point_IfEEE8max_sizeB8ne200100Ev
FNA:1,330,_ZNKSt3__19allocatorINS_10unique_ptrI14StabilizerCoreNS_14default_deleteIS2_EEEEE8max_sizeB8ne200100Ev
FNA:1,110,_ZNKSt3__19allocatorINS_12basic_stringIcNS_11char_traitsIcEENS0_IcEEEEE8max_sizeB8ne200100Ev
FNA:1,10,_ZNKSt3__19allocatorINS_4pairIiiEEE8max_sizeB8ne200100Ev
FNA:1,230,_ZNKSt3__19allocatorINS_6vectorIN2cv3MatENS0_IS3_EEEEE8max_sizeB8ne200100Ev
FNA:1,230,_ZNKSt3__19allocatorIP14StabilizerCoreE8max_sizeB8ne200100Ev
FNA:1,553,_ZNKSt3__19allocatorIPN2cv3MatEE8max_sizeB8ne200100Ev
FNA:1,3278,_ZNKSt3__19allocatorIcE8max_sizeB8ne200100Ev
FNA:1,1170,_ZNKSt3__19allocatorIdE8max_sizeB8ne200100Ev
FNA:1,115382,_ZNKSt3__19allocatorIfE8max_sizeB8ne200100Ev
FNA:1,115382,_ZNKSt3__19allocatorIhE8max_sizeB8ne200100Ev
FNA:1,20,_ZNKSt3__19allocatorIiE8max_sizeB8ne200100Ev
FNL:2,152,154
FNA:2,20,_ZNSt3__19allocatorIN14StabilizerCore16StabilizerParamsEE9constructB8ne200100IS2_JRKS2_EEEvPT_DpOT0_
FNA:2,7012,_ZNSt3__19allocatorIN2cv3MatEE9constructB8ne200100IS2_JRKS2_EEEvPT_DpOT0_
FNA:2,8650,_ZNSt3__19allocatorIN2cv3MatEE9constructB8ne200100IS2_JRS2_EEEvPT_DpOT0_
FNA:2,137946,_ZNSt3__19allocatorIN2cv3MatEE9constructB8ne200100IS2_JS2_EEEvPT_DpOT0_
FNA:2,93136,_ZNSt3__19allocatorIN2cv6Point_IfEEE9constructB8ne200100IS3_JEEEvPT_DpOT0_
FNA:2,250,_ZNSt3__19allocatorINS_10unique_ptrI14StabilizerCoreNS_14default_deleteIS2_EEEEE9constructB8ne200100IS5_JS5_EEEvPT_DpOT0_
FNA:2,275,_ZNSt3__19allocatorINS_12basic_stringIcNS_11char_traitsIcEENS0_IcEEEEE9constructB8ne200100IS5_JRKS5_EEEvPT_DpOT0_
FNA:2,20,_ZNSt3__19allocatorINS_4pairIiiEEE9constructB8ne200100IS2_JRKS2_EEEvPT_DpOT0_
FNA:2,165,_ZNSt3__19allocatorINS_6vectorIN2cv3MatENS0_IS3_EEEEE9constructB8ne200100IS5_JRKS5_EEEvPT_DpOT0_
FNA:2,10,_ZNSt3__19allocatorIP14StabilizerCoreE9constructB8ne200100IS2_JRKS2_EEEvPT_DpOT0_
FNA:2,185,_ZNSt3__19allocatorIP14StabilizerCoreE9constructB8ne200100IS2_JS2_EEEvPT_DpOT0_
FNA:2,0,_ZNSt3__19allocatorIPN2cv3MatEE9constructB8ne200100IS3_JRS3_EEEvPT_DpOT0_
FNA:2,553,_ZNSt3__19allocatorIPN2cv3MatEE9constructB8ne200100IS3_JS3_EEEvPT_DpOT0_
FNA:2,5250,_ZNSt3__19allocatorIdE9constructB8ne200100IdJdEEEvPT_DpOT0_
FNA:2,30,_ZNSt3__19allocatorIiE9constructB8ne200100IiJRKiEEEvPT_DpOT0_
FNL:3,156,156
FNA:3,20,_ZNSt3__19allocatorIN14StabilizerCore16StabilizerParamsEE7destroyB8ne200100EPS2_
FNA:3,153608,_ZNSt3__19allocatorIN2cv3MatEE7destroyB8ne200100EPS2_
FNA:3,131361,_ZNSt3__19allocatorIN2cv6Point_IfEEE7destroyB8ne200100EPS3_
FNA:3,3735120,_ZNSt3__19allocatorIN2cv6Point_IiEEE7destroyB8ne200100EPS3_
FNA:3,250,_ZNSt3__19allocatorINS_10unique_ptrI14StabilizerCoreNS_14default_deleteIS2_EEEEE7destroyB8ne200100EPS5_
FNA:3,275,_ZNSt3__19allocatorINS_12basic_stringIcNS_11char_traitsIcEENS0_IcEEEEE7destroyB8ne200100EPS5_
FNA:3,20,_ZNSt3__19allocatorINS_4pairIiiEEE7destroyB8ne200100EPS2_
FNA:3,165,_ZNSt3__19allocatorINS_6vectorIN2cv3MatENS0_IS3_EEEEE7destroyB8ne200100EPS5_
FNA:3,195,_ZNSt3__19allocatorIP14StabilizerCoreE7destroyB8ne200100EPS2_
FNA:3,553,_ZNSt3__19allocatorIPN2cv3MatEE7destroyB8ne200100EPS3_
FNA:3,5250,_ZNSt3__19allocatorIdE7destroyB8ne200100EPd
FNA:3,93136,_ZNSt3__19allocatorIfE7destroyB8ne200100EPf
FNA:3,93136,_ZNSt3__19allocatorIhE7destroyB8ne200100EPh
FNA:3,30,_ZNSt3__19allocatorIiE7destroyB8ne200100EPi
FNL:4,71,71
FNA:4,5,_ZNSt3__116__non_trivial_ifILb1ENS_9allocatorIN14StabilizerCore16StabilizerParamsEEEEC2B8ne200100Ev
FNA:4,2023,_ZNSt3__116__non_trivial_ifILb1ENS_9allocatorIN2cv3MatEEEEC2B8ne200100Ev
FNA:4,58637,_ZNSt3__116__non_trivial_ifILb1ENS_9allocatorIN2cv6Point_IfEEEEEC2B8ne200100Ev
FNA:4,35,_ZNSt3__116__non_trivial_ifILb1ENS_9allocatorIN2cv6Point_IiEEEEEC2B8ne200100Ev
FNA:4,42,_ZNSt3__116__non_trivial_ifILb1ENS_9allocatorINS_10unique_ptrI14StabilizerCoreNS_14default_deleteIS3_EEEEEEEC2B8ne200100Ev
FNA:4,55,_ZNSt3__116__non_trivial_ifILb1ENS_9allocatorINS_12basic_stringIcNS_11char_traitsIcEENS1_IcEEEEEEEC2B8ne200100Ev
FNA:4,5,_ZNSt3__116__non_trivial_ifILb1ENS_9allocatorINS_4pairIiiEEEEEC2B8ne200100Ev
FNA:4,35,_ZNSt3__116__non_trivial_ifILb1ENS_9allocatorINS_6vectorIN2cv3MatENS1_IS4_EEEEEEEC2B8ne200100Ev
FNA:4,35,_ZNSt3__116__non_trivial_ifILb1ENS_9allocatorIP14StabilizerCoreEEEC2B8ne200100Ev
FNA:4,793,_ZNSt3__116__non_trivial_ifILb1ENS_9allocatorIPN2cv3MatEEEEC2B8ne200100Ev
FNA:4,4275,_ZNSt3__116__non_trivial_ifILb1ENS_9allocatorIcEEEC2B8ne200100Ev
FNA:4,80,_ZNSt3__116__non_trivial_ifILb1ENS_9allocatorIdEEEC2B8ne200100Ev
FNA:4,57691,_ZNSt3__116__non_trivial_ifILb1ENS_9allocatorIfEEEC2B8ne200100Ev
FNA:4,57691,_ZNSt3__116__non_trivial_ifILb1ENS_9allocatorIhEEEC2B8ne200100Ev
FNA:4,10,_ZNSt3__116__non_trivial_ifILb1ENS_9allocatorIiEEEC2B8ne200100Ev
FNL:5,93,93
FNA:5,5,_ZNSt3__19allocatorIN14StabilizerCore16StabilizerParamsEEC1B8ne200100Ev
FNA:5,5,_ZNSt3__19allocatorIN14StabilizerCore16StabilizerParamsEEC2B8ne200100Ev
FNA:5,2011,_ZNSt3__19allocatorIN2cv3MatEEC1B8ne200100Ev
FNA:5,2011,_ZNSt3__19allocatorIN2cv3MatEEC2B8ne200100Ev
FNA:5,58637,_ZNSt3__19allocatorIN2cv6Point_IfEEEC1B8ne200100Ev
FNA:5,58637,_ZNSt3__19allocatorIN2cv6Point_IfEEEC2B8ne200100Ev
FNA:5,35,_ZNSt3__19allocatorIN2cv6Point_IiEEEC1B8ne200100Ev
FNA:5,35,_ZNSt3__19allocatorIN2cv6Point_IiEEEC2B8ne200100Ev
FNA:5,42,_ZNSt3__19allocatorINS_10unique_ptrI14StabilizerCoreNS_14default_deleteIS2_EEEEEC1B8ne200100Ev
FNA:5,42,_ZNSt3__19allocatorINS_10unique_ptrI14StabilizerCoreNS_14default_deleteIS2_EEEEEC2B8ne200100Ev
FNA:5,55,_ZNSt3__19allocatorINS_12basic_stringIcNS_11char_traitsIcEENS0_IcEEEEEC1B8ne200100Ev
FNA:5,55,_ZNSt3__19allocatorINS_12basic_stringIcNS_11char_traitsIcEENS0_IcEEEEEC2B8ne200100Ev
FNA:5,5,_ZNSt3__19allocatorINS_4pairIiiEEEC1B8ne200100Ev
FNA:5,5,_ZNSt3__19allocatorINS_4pairIiiEEEC2B8ne200100Ev
FNA:5,35,_ZNSt3__19allocatorINS_6vectorIN2cv3MatENS0_IS3_EEEEEC1B8ne200100Ev
FNA:5,35,_ZNSt3__19allocatorINS_6vectorIN2cv3MatENS0_IS3_EEEEEC2B8ne200100Ev
FNA:5,35,_ZNSt3__19allocatorIP14StabilizerCoreEC1B8ne200100Ev
FNA:5,35,_ZNSt3__19allocatorIP14StabilizerCoreEC2B8ne200100Ev
FNA:5,781,_ZNSt3__19allocatorIPN2cv3MatEEC1B8ne200100Ev
FNA:5,781,_ZNSt3__19allocatorIPN2cv3MatEEC2B8ne200100Ev
FNA:5,4275,_ZNSt3__19allocatorIcEC1B8ne200100Ev
FNA:5,4275,_ZNSt3__19allocatorIcEC2B8ne200100Ev
FNA:5,80,_ZNSt3__19allocatorIdEC1B8ne200100Ev
FNA:5,80,_ZNSt3__19allocatorIdEC2B8ne200100Ev
FNA:5,57691,_ZNSt3__19allocatorIfEC1B8ne200100Ev
FNA:5,57691,_ZNSt3__19allocatorIfEC2B8ne200100Ev
FNA:5,57691,_ZNSt3__19allocatorIhEC1B8ne200100Ev
FNA:5,57691,_ZNSt3__19allocatorIhEC2B8ne200100Ev
FNA:5,10,_ZNSt3__19allocatorIiEC1B8ne200100Ev
FNA:5,10,_ZNSt3__19allocatorIiEC2B8ne200100Ev
FNL:6,96,96
FNA:6,12,_ZNSt3__19allocatorIN2cv3MatEEC1B8ne200100IPS2_EERKNS0_IT_EE
FNA:6,12,_ZNSt3__19allocatorIN2cv3MatEEC2B8ne200100IPS2_EERKNS0_IT_EE
FNA:6,12,_ZNSt3__19allocatorIPN2cv3MatEEC1B8ne200100IS2_EERKNS0_IT_EE
FNA:6,12,_ZNSt3__19allocatorIPN2cv3MatEEC2B8ne200100IS2_EERKNS0_IT_EE
FNL:7,98,105
FNA:7,5,_ZNSt3__19allocatorIN14StabilizerCore16StabilizerParamsEE8allocateB8ne200100Em
FNA:7,7834,_ZNSt3__19allocatorIN2cv3MatEE8allocateB8ne200100Em
FNA:7,58400,_ZNSt3__19allocatorIN2cv6Point_IfEEE8allocateB8ne200100Em
FNA:7,165,_ZNSt3__19allocatorINS_10unique_ptrI14StabilizerCoreNS_14default_deleteIS2_EEEEE8allocateB8ne200100Em
FNA:7,55,_ZNSt3__19allocatorINS_12basic_stringIcNS_11char_traitsIcEENS0_IcEEEEE8allocateB8ne200100Em
FNA:7,5,_ZNSt3__19allocatorINS_4pairIiiEEE8allocateB8ne200100Em
FNA:7,115,_ZNSt3__19allocatorINS_6vectorIN2cv3MatENS0_IS3_EEEEE8allocateB8ne200100Em
FNA:7,115,_ZNSt3__19allocatorIP14StabilizerCoreE8allocateB8ne200100Em
FNA:7,553,_ZNSt3__19allocatorIPN2cv3MatEE8allocateB8ne200100Em
FNA:7,1183,_ZNSt3__19allocatorIcE8allocateB8ne200100Em
FNA:7,585,_ZNSt3__19allocatorIdE8allocateB8ne200100Em
FNA:7,57691,_ZNSt3__19allocatorIfE8allocateB8ne200100Em
FNA:7,57691,_ZNSt3__19allocatorIhE8allocateB8ne200100Em
FNA:7,10,_ZNSt3__19allocatorIiE8allocateB8ne200100Em
FNF:8
FNH:8
DA:71,181412
DA:93,362776
DA:96,48
DA:98,184407
DA:100,184407
DA:101,0
DA:105,184407
DA:116,183393
DA:120,183393
DA:122,183393
DA:147,368620
DA:148,368620
DA:152,253502
DA:153,253502
DA:154,253502
DA:156,4213119
LF:16
LH:15
end_of_record
TN:
SF:/Library/Developer/CommandLineTools/SDKs/MacOSX.sdk/usr/include/c++/v1/__memory/allocator_destructor.h
FNL:0,34,34
FNA:0,541,_ZNSt3__122__allocator_destructorINS_9allocatorIN2cv3MatEEEEC1B8ne200100ERS4_m
FNA:0,541,_ZNSt3__122__allocator_destructorINS_9allocatorIN2cv3MatEEEEC2B8ne200100ERS4_m
FNL:1,35,35
FNA:1,0,_ZNSt3__122__allocator_destructorINS_9allocatorIN2cv3MatEEEEclB8ne200100EPS3_
FNF:2
FNH:1
DA:34,1082
DA:35,0
LF:2
LH:1
end_of_record
TN:
SF:/Library/Developer/CommandLineTools/SDKs/MacOSX.sdk/usr/include/c++/v1/__memory/allocator_traits.h
FNL:0,269,270
FNA:0,553,_ZNSt3__116allocator_traitsINS_9allocatorIN2cv3MatEEEE8allocateB8ne200100ERS4_m
FNL:1,301,303
FNA:1,5,_ZNSt3__116allocator_traitsINS_9allocatorIN14StabilizerCore16StabilizerParamsEEEE10deallocateB8ne200100ERS4_PS3_m
FNA:1,7834,_ZNSt3__116allocator_traitsINS_9allocatorIN2cv3MatEEEE10deallocateB8ne200100ERS4_PS3_m
FNA:1,58485,_ZNSt3__116allocator_traitsINS_9allocatorIN2cv6Point_IfEEEEE10deallocateB8ne200100ERS5_PS4_m
FNA:1,30,_ZNSt3__116allocator_traitsINS_9allocatorIN2cv6Point_IiEEEEE10deallocateB8ne200100ERS5_PS4_m
FNA:1,165,_ZNSt3__116allocator_traitsINS_9allocatorINS_10unique_ptrI14StabilizerCoreNS_14default_deleteIS3_EEEEEEE10deallocateB8ne200100ERS7_PS6_m
FNA:1,55,_ZNSt3__116allocator_traitsINS_9allocatorINS_12basic_stringIcNS_11char_traitsIcEENS1_IcEEEEEEE10deallocateB8ne200100ERS7_PS6_m
FNA:1,5,_ZNSt3__116allocator_traitsINS_9allocatorINS_4pairIiiEEEEE10deallocateB8ne200100ERS4_PS3_m
FNA:1,115,_ZNSt3__116allocator_traitsINS_9allocatorINS_6vectorIN2cv3MatENS1_IS4_EEEEEEE10deallocateB8ne200100ERS7_PS6_m
FNA:1,115,_ZNSt3__116allocator_traitsINS_9allocatorIP14StabilizerCoreEEE10deallocateB8ne200100ERS4_PS3_m
FNA:1,553,_ZNSt3__116allocator_traitsINS_9allocatorIPN2cv3MatEEEE10deallocateB8ne200100ERS5_PS4_m
FNA:1,54,_ZNSt3__116allocator_traitsINS_9allocatorIcEEE10deallocateB8ne200100ERS2_Pcm
FNA:1,585,_ZNSt3__116allocator_traitsINS_9allocatorIdEEE10deallocateB8ne200100ERS2_Pdm
FNA:1,57691,_ZNSt3__116allocator_traitsINS_9allocatorIfEEE10deallocateB8ne200100ERS2_Pfm
FNA:1,57691,_ZNSt3__116allocator_traitsINS_9allocatorIhEEE10deallocateB8ne200100ERS2_Phm
FNA:1,10,_ZNSt3__116allocator_traitsINS_9allocatorIiEEE10deallocateB8ne200100ERS2_Pim
FNL:2,307,311
FNA:2,20,_ZNSt3__116allocator_traitsINS_9allocatorIN14StabilizerCore16StabilizerParamsEEEE9constructB8ne200100IS3_JRKS3_ELi0EEEvRS4_PT_DpOT0_
FNA:2,7012,_ZNSt3__116allocator_traitsINS_9allocatorIN2cv3MatEEEE9constructB8ne200100IS3_JRKS3_ELi0EEEvRS4_PT_DpOT0_
FNA:2,8650,_ZNSt3__116allocator_traitsINS_9allocatorIN2cv3MatEEEE9constructB8ne200100IS3_JRS3_ELi0EEEvRS4_PT_DpOT0_
FNA:2,137946,_ZNSt3__116allocator_traitsINS_9allocatorIN2cv3MatEEEE9constructB8ne200100IS3_JS3_ELi0EEEvRS4_PT_DpOT0_
FNA:2,93136,_ZNSt3__116allocator_traitsINS_9allocatorIN2cv6Point_IfEEEEE9constructB8ne200100IS4_JELi0EEEvRS5_PT_DpOT0_
FNA:2,250,_ZNSt3__116allocator_traitsINS_9allocatorINS_10unique_ptrI14StabilizerCoreNS_14default_deleteIS3_EEEEEEE9constructB8ne200100IS6_JS6_ELi0EEEvRS7_PT_DpOT0_
FNA:2,275,_ZNSt3__116allocator_traitsINS_9allocatorINS_12basic_stringIcNS_11char_traitsIcEENS1_IcEEEEEEE9constructB8ne200100IS6_JRKS6_ELi0EEEvRS7_PT_DpOT0_
FNA:2,20,_ZNSt3__116allocator_traitsINS_9allocatorINS_4pairIiiEEEEE9constructB8ne200100IS3_JRKS3_ELi0EEEvRS4_PT_DpOT0_
FNA:2,165,_ZNSt3__116allocator_traitsINS_9allocatorINS_6vectorIN2cv3MatENS1_IS4_EEEEEEE9constructB8ne200100IS6_JRKS6_ELi0EEEvRS7_PT_DpOT0_
FNA:2,10,_ZNSt3__116allocator_traitsINS_9allocatorIP14StabilizerCoreEEE9constructB8ne200100IS3_JRKS3_ELi0EEEvRS4_PT_DpOT0_
FNA:2,185,_ZNSt3__116allocator_traitsINS_9allocatorIP14StabilizerCoreEEE9constructB8ne200100IS3_JS3_ELi0EEEvRS4_PT_DpOT0_
FNA:2,0,_ZNSt3__116allocator_traitsINS_9allocatorIPN2cv3MatEEEE9constructB8ne200100IS4_JRS4_ELi0EEEvRS5_PT_DpOT0_
FNA:2,553,_ZNSt3__116allocator_traitsINS_9allocatorIPN2cv3MatEEEE9constructB8ne200100IS4_JS4_ELi0EEEvRS5_PT_DpOT0_
FNA:2,5250,_ZNSt3__116allocator_traitsINS_9allocatorIdEEE9constructB8ne200100IdJdELi0EEEvRS2_PT_DpOT0_
FNA:2,30,_ZNSt3__116allocator_traitsINS_9allocatorIiEEE9constructB8ne200100IiJRKiELi0EEEvRS2_PT_DpOT0_
FNL:3,322,326
FNA:3,20,_ZNSt3__116allocator_traitsINS_9allocatorIN14StabilizerCore16StabilizerParamsEEEE7destroyB8ne200100IS3_Li0EEEvRS4_PT_
FNA:3,153608,_ZNSt3__116allocator_traitsINS_9allocatorIN2cv3MatEEEE7destroyB8ne200100IS3_Li0EEEvRS4_PT_
FNA:3,131361,_ZNSt3__116allocator_traitsINS_9allocatorIN2cv6Point_IfEEEEE7destroyB8ne200100IS4_Li0EEEvRS5_PT_
FNA:3,3735120,_ZNSt3__116allocator_traitsINS_9allocatorIN2cv6Point_IiEEEEE7destroyB8ne200100IS4_Li0EEEvRS5_PT_
FNA:3,250,_ZNSt3__116allocator_traitsINS_9allocatorINS_10unique_ptrI14StabilizerCoreNS_14default_deleteIS3_EEEEEEE7destroyB8ne200100IS6_Li0EEEvRS7_PT_
FNA:3,275,_ZNSt3__116allocator_traitsINS_9allocatorINS_12basic_stringIcNS_11char_traitsIcEENS1_IcEEEEEEE7destroyB8ne200100IS6_Li0EEEvRS7_PT_
FNA:3,20,_ZNSt3__116allocator_traitsINS_9allocatorINS_4pairIiiEEEEE7destroyB8ne200100IS3_Li0EEEvRS4_PT_
FNA:3,165,_ZNSt3__116allocator_traitsINS_9allocatorINS_6vectorIN2cv3MatENS1_IS4_EEEEEEE7destroyB8ne200100IS6_Li0EEEvRS7_PT_
FNA:3,195,_ZNSt3__116allocator_traitsINS_9allocatorIP14StabilizerCoreEEE7destroyB8ne200100IS3_Li0EEEvRS4_PT_
FNA:3,553,_ZNSt3__116allocator_traitsINS_9allocatorIPN2cv3MatEEEE7destroyB8ne200100IS4_Li0EEEvRS5_PT_
FNA:3,5250,_ZNSt3__116allocator_traitsINS_9allocatorIdEEE7destroyB8ne200100IdLi0EEEvRS2_PT_
FNA:3,93136,_ZNSt3__116allocator_traitsINS_9allocatorIfEEE7destroyB8ne200100IfLi0EEEvRS2_PT_
FNA:3,93136,_ZNSt3__116allocator_traitsINS_9allocatorIhEEE7destroyB8ne200100IhLi0EEEvRS2_PT_
FNA:3,30,_ZNSt3__116allocator_traitsINS_9allocatorIiEEE7destroyB8ne200100IiLi0EEEvRS2_PT_
FNL:4,333,335
FNA:4,10,_ZNSt3__116allocator_traitsINS_9allocatorIN14StabilizerCore16StabilizerParamsEEEE8max_sizeB8ne200100IS4_Li0EEEmRKS4_
FNA:4,15115,_ZNSt3__116allocator_traitsINS_9allocatorIN2cv3MatEEEE8max_sizeB8ne200100IS4_Li0EEEmRKS4_
FNA:4,116800,_ZNSt3__116allocator_traitsINS_9allocatorIN2cv6Point_IfEEEEE8max_sizeB8ne200100IS5_Li0EEEmRKS5_
FNA:4,330,_ZNSt3__116allocator_traitsINS_9allocatorINS_10unique_ptrI14StabilizerCoreNS_14default_deleteIS3_EEEEEEE8max_sizeB8ne200100IS7_Li0EEEmRKS7_
FNA:4,110,_ZNSt3__116allocator_traitsINS_9allocatorINS_12basic_stringIcNS_11char_traitsIcEENS1_IcEEEEEEE8max_sizeB8ne200100IS7_Li0EEEmRKS7_
FNA:4,10,_ZNSt3__116allocator_traitsINS_9allocatorINS_4pairIiiEEEEE8max_sizeB8ne200100IS4_Li0EEEmRKS4_
FNA:4,230,_ZNSt3__116allocator_traitsINS_9allocatorINS_6vectorIN2cv3MatENS1_IS4_EEEEEEE8max_sizeB8ne200100IS7_Li0EEEmRKS7_
FNA:4,230,_ZNSt3__116allocator_traitsINS_9allocatorIP14StabilizerCoreEEE8max_sizeB8ne200100IS4_Li0EEEmRKS4_
FNA:4,553,_ZNSt3__116allocator_traitsINS_9allocatorIPN2cv3MatEEEE8max_sizeB8ne200100IS5_Li0EEEmRKS5_
FNA:4,3278,_ZNSt3__116allocator_traitsINS_9allocatorIcEEE8max_sizeB8ne200100IS2_Li0EEEmRKS2_
FNA:4,1170,_ZNSt3__116allocator_traitsINS_9allocatorIdEEE8max_sizeB8ne200100IS2_Li0EEEmRKS2_
FNA:4,115382,_ZNSt3__116allocator_traitsINS_9allocatorIfEEE8max_sizeB8ne200100IS2_Li0EEEmRKS2_
FNA:4,115382,_ZNSt3__116allocator_traitsINS_9allocatorIhEEE8max_sizeB8ne200100IS2_Li0EEEmRKS2_
FNA:4,20,_ZNSt3__116allocator_traitsINS_9allocatorIiEEE8max_sizeB8ne200100IS2_Li0EEEmRKS2_
FNL:5,352,353
FNA:5,187,_ZNSt3__116allocator_traitsINS_9allocatorIN2cv3MatEEEE37select_on_container_copy_constructionB8ne200100IS4_vLi0EEES4_RKS4_
FNA:5,325,_ZNSt3__116allocator_traitsINS_9allocatorIcEEE37select_on_container_copy_constructionB8ne200100IS2_vLi0EEES2_RKS2_
FNF:6
FNH:6
DA:269,553
DA:270,553
DA:301,183393
DA:302,183393
DA:303,183393
DA:307,253502
DA:309,253502
DA:311,253502
DA:322,4213119
DA:324,4213119
DA:326,4213119
DA:333,368620
DA:335,368620
DA:352,512
DA:353,512
LF:15
LH:15
end_of_record
TN:
SF:/Library/Developer/CommandLineTools/SDKs/MacOSX.sdk/usr/include/c++/v1/__memory/pointer_traits.h
FNL:0,172,173
FNA:0,15,_ZNSt3__114pointer_traitsIPKcE10pointer_toB8ne200100ERS1_
FNA:0,937,_ZNSt3__114pointer_traitsIPcE10pointer_toB8ne200100ERc
FNL:1,191,193
FNA:1,10,_ZNSt3__112__to_addressB8ne200100IKN14StabilizerCore16StabilizerParamsEEEPT_S5_
FNA:1,110,_ZNSt3__112__to_addressB8ne200100IKNS_12basic_stringIcNS_11char_traitsIcEENS_9allocatorIcEEEEEEPT_S9_
FNA:1,10,_ZNSt3__112__to_addressB8ne200100IKNS_4pairIiiEEEEPT_S5_
FNA:1,10,_ZNSt3__112__to_addressB8ne200100IKNS_6vectorIN2cv3MatENS_9allocatorIS3_EEEEEEPT_S9_
FNA:1,10,_ZNSt3__112__to_addressB8ne200100IKP14StabilizerCoreEEPT_S5_
FNA:1,15,_ZNSt3__112__to_addressB8ne200100IKcEEPT_S3_
FNA:1,20,_ZNSt3__112__to_addressB8ne200100IKiEEPT_S3_
FNA:1,50,_ZNSt3__112__to_addressB8ne200100IN14StabilizerCore16StabilizerParamsEEEPT_S4_
FNA:1,326543,_ZNSt3__112__to_addressB8ne200100IN2cv3MatEEEPT_S4_
FNA:1,516497,_ZNSt3__112__to_addressB8ne200100IN2cv6Point_IfEEEEPT_S5_
FNA:1,3735120,_ZNSt3__112__to_addressB8ne200100IN2cv6Point_IiEEEEPT_S5_
FNA:1,1325,_ZNSt3__112__to_addressB8ne200100INS_10unique_ptrI14StabilizerCoreNS_14default_deleteIS2_EEEEEEPT_S7_
FNA:1,660,_ZNSt3__112__to_addressB8ne200100INS_12basic_stringIcNS_11char_traitsIcEENS_9allocatorIcEEEEEEPT_S8_
FNA:1,50,_ZNSt3__112__to_addressB8ne200100INS_4pairIiiEEEEPT_S4_
FNA:1,890,_ZNSt3__112__to_addressB8ne200100INS_6vectorIN2cv3MatENS_9allocatorIS3_EEEEEEPT_S8_
FNA:1,950,_ZNSt3__112__to_addressB8ne200100IP14StabilizerCoreEEPT_S4_
FNA:1,1106,_ZNSt3__112__to_addressB8ne200100IPN2cv3MatEEEPT_S5_
FNA:1,2105,_ZNSt3__112__to_addressB8ne200100IcEEPT_S2_
FNA:1,13425,_ZNSt3__112__to_addressB8ne200100IdEEPT_S2_
FNA:1,381591,_ZNSt3__112__to_addressB8ne200100IfEEPT_S2_
FNA:1,381591,_ZNSt3__112__to_addressB8ne200100IhEEPT_S2_
FNA:1,80,_ZNSt3__112__to_addressB8ne200100IiEEPT_S2_
FNL:2,218,219
FNA:2,10,_ZNSt3__112__to_addressB8ne200100INS_11__wrap_iterIPN2cv3MatEEELi0EEEu7__decayIDTclsr19__to_address_helperIT_EE6__callclsr3stdE7declvalIRKS6_EEEEES8_
FNA:2,0,_ZNSt3__112__to_addressB8ne200100INS_11__wrap_iterIPdEELi0EEEu7__decayIDTclsr19__to_address_helperIT_EE6__callclsr3stdE7declvalIRKS4_EEEEES6_
FNA:2,0,_ZNSt3__112__to_addressB8ne200100INS_16reverse_iteratorIPN14StabilizerCore16StabilizerParamsEEELi0EEEu7__decayIDTclsr19__to_address_helperIT_EE6__callclsr3stdE7declvalIRKS6_EEEEES8_
FNA:2,0,_ZNSt3__112__to_addressB8ne200100INS_16reverse_iteratorIPN2cv3MatEEELi0EEEu7__decayIDTclsr19__to_address_helperIT_EE6__callclsr3stdE7declvalIRKS6_EEEEES8_
FNA:2,0,_ZNSt3__112__to_addressB8ne200100INS_16reverse_iteratorIPNS_12basic_stringIcNS_11char_traitsIcEENS_9allocatorIcEEEEEELi0EEEu7__decayIDTclsr19__to_address_helperIT_EE6__callclsr3stdE7declvalIRKSA_EEEEESC_
FNA:2,0,_ZNSt3__112__to_addressB8ne200100INS_16reverse_iteratorIPNS_4pairIiiEEEELi0EEEu7__decayIDTclsr19__to_address_helperIT_EE6__callclsr3stdE7declvalIRKS6_EEEEES8_
FNA:2,0,_ZNSt3__112__to_addressB8ne200100INS_16reverse_iteratorIPNS_6vectorIN2cv3MatENS_9allocatorIS4_EEEEEELi0EEEu7__decayIDTclsr19__to_address_helperIT_EE6__callclsr3stdE7declvalIRKSA_EEEEESC_
FNA:2,0,_ZNSt3__112__to_addressB8ne200100INS_16reverse_iteratorIPP14StabilizerCoreEELi0EEEu7__decayIDTclsr19__to_address_helperIT_EE6__callclsr3stdE7declvalIRKS6_EEEEES8_
FNA:2,0,_ZNSt3__112__to_addressB8ne200100INS_16reverse_iteratorIPiEELi0EEEu7__decayIDTclsr19__to_address_helperIT_EE6__callclsr3stdE7declvalIRKS4_EEEEES6_
FNL:3,226,227
FNA:3,0,_ZNSt3__119__to_address_helperINS_16reverse_iteratorIPN14StabilizerCore16StabilizerParamsEEEvE6__callB8ne200100ERKS5_
FNA:3,0,_ZNSt3__119__to_address_helperINS_16reverse_iteratorIPN2cv3MatEEEvE6__callB8ne200100ERKS5_
FNA:3,0,_ZNSt3__119__to_address_helperINS_16reverse_iteratorIPNS_12basic_stringIcNS_11char_traitsIcEENS_9allocatorIcEEEEEEvE6__callB8ne200100ERKS9_
FNA:3,0,_ZNSt3__119__to_address_helperINS_16reverse_iteratorIPNS_4pairIiiEEEEvE6__callB8ne200100ERKS5_
FNA:3,0,_ZNSt3__119__to_address_helperINS_16reverse_iteratorIPNS_6vectorIN2cv3MatENS_9allocatorIS4_EEEEEEvE6__callB8ne200100ERKS9_
FNA:3,0,_ZNSt3__119__to_address_helperINS_16reverse_iteratorIPP14StabilizerCoreEEvE6__callB8ne200100ERKS5_
FNA:3,0,_ZNSt3__119__to_address_helperINS_16reverse_iteratorIPiEEvE6__callB8ne200100ERKS3_
FNL:4,236,237
FNA:4,10,_ZNSt3__119__to_address_helperINS_11__wrap_iterIPN2cv3MatEEEvE6__callB8ne200100ERKS5_
FNA:4,0,_ZNSt3__119__to_address_helperINS_11__wrap_iterIPdEEvE6__callB8ne200100ERKS3_
FNF:5
FNH:4
DA:172,952
DA:173,952
DA:191,5362168
DA:193,5362168
DA:218,10
DA:219,10
DA:226,0
DA:227,0
DA:236,10
DA:237,10
LF:10
LH:8
end_of_record
TN:
SF:/Library/Developer/CommandLineTools/SDKs/MacOSX.sdk/usr/include/c++/v1/__memory/uninitialized_algorithms.h
FNL:0,517,520
FNA:0,0,_ZNSt3__119__allocator_destroyB8ne200100INS_9allocatorIN14StabilizerCore16StabilizerParamsEEENS_16reverse_iteratorIPS3_EES7_EEvRT_T0_T1_
FNA:0,0,_ZNSt3__119__allocator_destroyB8ne200100INS_9allocatorIN2cv3MatEEENS_16reverse_iteratorIPS3_EES7_EEvRT_T0_T1_
FNA:0,7121,_ZNSt3__119__allocator_destroyB8ne200100INS_9allocatorIN2cv3MatEEEPS3_S5_EEvRT_T0_T1_
FNA:0,0,_ZNSt3__119__allocator_destroyB8ne200100INS_9allocatorINS_12basic_stringIcNS_11char_traitsIcEENS1_IcEEEEEENS_16reverse_iteratorIPS6_EESA_EEvRT_T0_T1_
FNA:0,0,_ZNSt3__119__allocator_destroyB8ne200100INS_9allocatorINS_4pairIiiEEEENS_16reverse_iteratorIPS3_EES7_EEvRT_T0_T1_
FNA:0,0,_ZNSt3__119__allocator_destroyB8ne200100INS_9allocatorINS_6vectorIN2cv3MatENS1_IS4_EEEEEENS_16reverse_iteratorIPS6_EESA_EEvRT_T0_T1_
FNA:0,0,_ZNSt3__119__allocator_destroyB8ne200100INS_9allocatorIP14StabilizerCoreEENS_16reverse_iteratorIPS3_EES7_EEvRT_T0_T1_
FNA:0,0,_ZNSt3__119__allocator_destroyB8ne200100INS_9allocatorIiEENS_16reverse_iteratorIPiEES5_EEvRT_T0_T1_
FNL:1,526,527
FNA:1,5,_ZNSt3__129_AllocatorDestroyRangeReverseINS_9allocatorIN14StabilizerCore16StabilizerParamsEEEPS3_EC1B8ne200100ERS4_RS5_S8_
FNA:1,5,_ZNSt3__129_AllocatorDestroyRangeReverseINS_9allocatorIN14StabilizerCore16StabilizerParamsEEEPS3_EC2B8ne200100ERS4_RS5_S8_
FNA:1,7301,_ZNSt3__129_AllocatorDestroyRangeReverseINS_9allocatorIN2cv3MatEEEPS3_EC1B8ne200100ERS4_RS5_S8_
FNA:1,7301,_ZNSt3__129_AllocatorDestroyRangeReverseINS_9allocatorIN2cv3MatEEEPS3_EC2B8ne200100ERS4_RS5_S8_
FNA:1,55,_ZNSt3__129_AllocatorDestroyRangeReverseINS_9allocatorINS_12basic_stringIcNS_11char_traitsIcEENS1_IcEEEEEEPS6_EC1B8ne200100ERS7_RS8_SB_
FNA:1,55,_ZNSt3__129_AllocatorDestroyRangeReverseINS_9allocatorINS_12basic_stringIcNS_11char_traitsIcEENS1_IcEEEEEEPS6_EC2B8ne200100ERS7_RS8_SB_
FNA:1,5,_ZNSt3__129_AllocatorDestroyRangeReverseINS_9allocatorINS_4pairIiiEEEEPS3_EC1B8ne200100ERS4_RS5_S8_
FNA:1,5,_ZNSt3__129_AllocatorDestroyRangeReverseINS_9allocatorINS_4pairIiiEEEEPS3_EC2B8ne200100ERS4_RS5_S8_
FNA:1,5,_ZNSt3__129_AllocatorDestroyRangeReverseINS_9allocatorINS_6vectorIN2cv3MatENS1_IS4_EEEEEEPS6_EC1B8ne200100ERS7_RS8_SB_
FNA:1,5,_ZNSt3__129_AllocatorDestroyRangeReverseINS_9allocatorINS_6vectorIN2cv3MatENS1_IS4_EEEEEEPS6_EC2B8ne200100ERS7_RS8_SB_
FNA:1,5,_ZNSt3__129_AllocatorDestroyRangeReverseINS_9allocatorIP14StabilizerCoreEEPS3_EC1B8ne200100ERS4_RS5_S8_
FNA:1,5,_ZNSt3__129_AllocatorDestroyRangeReverseINS_9allocatorIP14StabilizerCoreEEPS3_EC2B8ne200100ERS4_RS5_S8_
FNA:1,10,_ZNSt3__129_AllocatorDestroyRangeReverseINS_9allocatorIiEEPiEC1B8ne200100ERS2_RS3_S6_
FNA:1,10,_ZNSt3__129_AllocatorDestroyRangeReverseINS_9allocatorIiEEPiEC2B8ne200100ERS2_RS3_S6_
FNL:2,529,531
FNA:2,0,_ZNKSt3__129_AllocatorDestroyRangeReverseINS_9allocatorIN14StabilizerCore16StabilizerParamsEEEPS3_EclB8ne200100Ev
FNA:2,0,_ZNKSt3__129_AllocatorDestroyRangeReverseINS_9allocatorIN2cv3MatEEEPS3_EclB8ne200100Ev
FNA:2,0,_ZNKSt3__129_AllocatorDestroyRangeReverseINS_9allocatorINS_12basic_stringIcNS_11char_traitsIcEENS1_IcEEEEEEPS6_EclB8ne200100Ev
FNA:2,0,_ZNKSt3__129_AllocatorDestroyRangeReverseINS_9allocatorINS_4pairIiiEEEEPS3_EclB8ne200100Ev
FNA:2,0,_ZNKSt3__129_AllocatorDestroyRangeReverseINS_9allocatorINS_6vectorIN2cv3MatENS1_IS4_EEEEEEPS6_EclB8ne200100Ev
FNA:2,0,_ZNKSt3__129_AllocatorDestroyRangeReverseINS_9allocatorIP14StabilizerCoreEEPS3_EclB8ne200100Ev
FNA:2,0,_ZNKSt3__129_AllocatorDestroyRangeReverseINS_9allocatorIiEEPiEclB8ne200100Ev
FNL:3,545,556
FNA:3,5,_ZNSt3__135__uninitialized_allocator_copy_implB8ne200100INS_9allocatorIN14StabilizerCore16StabilizerParamsEEEPKS3_S6_PS3_EET2_RT_T0_T1_S8_
FNA:3,180,_ZNSt3__135__uninitialized_allocator_copy_implB8ne200100INS_9allocatorIN2cv3MatEEEPS3_S5_S5_EET2_RT_T0_T1_S6_
FNA:3,55,_ZNSt3__135__uninitialized_allocator_copy_implB8ne200100INS_9allocatorINS_12basic_stringIcNS_11char_traitsIcEENS1_IcEEEEEEPKS6_S9_PS6_EET2_RT_T0_T1_SB_
FNA:3,5,_ZNSt3__135__uninitialized_allocator_copy_implB8ne200100INS_9allocatorINS_4pairIiiEEEEPKS3_S6_PS3_EET2_RT_T0_T1_S8_
FNA:3,5,_ZNSt3__135__uninitialized_allocator_copy_implB8ne200100INS_9allocatorINS_6vectorIN2cv3MatENS1_IS4_EEEEEEPKS6_S9_PS6_EET2_RT_T0_T1_SB_
FNA:3,5,_ZNSt3__135__uninitialized_allocator_copy_implB8ne200100INS_9allocatorIP14StabilizerCoreEEPKS3_S6_PS3_EET2_RT_T0_T1_S8_
FNA:3,10,_ZNSt3__135__uninitialized_allocator_copy_implB8ne200100INS_9allocatorIiEEPKiS4_PiEET2_RT_T0_T1_S6_
FNL:4,572,581
FNA:4,0,_ZNSt3__135__uninitialized_allocator_copy_implB8ne200100INS_9allocatorIN2cv6Point_IfEEEES4_S4_Li0EEEPT1_RT_PT0_SB_S7_
FNA:4,0,_ZNSt3__135__uninitialized_allocator_copy_implB8ne200100INS_9allocatorIdEEddLi0EEEPT1_RT_PT0_S8_S4_
FNL:5,587,592
FNA:5,5,_ZNSt3__130__uninitialized_allocator_copyB8ne200100INS_9allocatorIN14StabilizerCore16StabilizerParamsEEEPKS3_S6_PS3_EET2_RT_T0_T1_S8_
FNA:5,5,_ZNSt3__130__uninitialized_allocator_copyB8ne200100INS_9allocatorIN2cv3MatEEENS_11__wrap_iterIPS3_EES7_S6_EET2_RT_T0_T1_S8_
FNA:5,175,_ZNSt3__130__uninitialized_allocator_copyB8ne200100INS_9allocatorIN2cv3MatEEEPS3_S5_S5_EET2_RT_T0_T1_S6_
FNA:5,0,_ZNSt3__130__uninitialized_allocator_copyB8ne200100INS_9allocatorIN2cv6Point_IfEEEEPS4_S6_S6_EET2_RT_T0_T1_S7_
FNA:5,55,_ZNSt3__130__uninitialized_allocator_copyB8ne200100INS_9allocatorINS_12basic_stringIcNS_11char_traitsIcEENS1_IcEEEEEEPKS6_S9_PS6_EET2_RT_T0_T1_SB_
FNA:5,5,_ZNSt3__130__uninitialized_allocator_copyB8ne200100INS_9allocatorINS_4pairIiiEEEEPKS3_S6_PS3_EET2_RT_T0_T1_S8_
FNA:5,5,_ZNSt3__130__uninitialized_allocator_copyB8ne200100INS_9allocatorINS_6vectorIN2cv3MatENS1_IS4_EEEEEEPKS6_S9_PS6_EET2_RT_T0_T1_SB_
FNA:5,5,_ZNSt3__130__uninitialized_allocator_copyB8ne200100INS_9allocatorIP14StabilizerCoreEEPKS3_S6_PS3_EET2_RT_T0_T1_S8_
FNA:5,0,_ZNSt3__130__uninitialized_allocator_copyB8ne200100INS_9allocatorIdEENS_11__wrap_iterIPdEES5_S4_EET2_RT_T0_T1_S6_
FNA:5,10,_ZNSt3__130__uninitialized_allocator_copyB8ne200100INS_9allocatorIiEEPKiS4_PiEET2_RT_T0_T1_S6_
FNL:6,619,649
FNA:6,7121,_ZNSt3__134__uninitialized_allocator_relocateB8ne200100INS_9allocatorIN2cv3MatEEEPS3_EEvRT_T0_S8_S8_
FNA:6,58400,_ZNSt3__134__uninitialized_allocator_relocateB8ne200100INS_9allocatorIN2cv6Point_IfEEEEPS4_EEvRT_T0_S9_S9_
FNA:6,165,_ZNSt3__134__uninitialized_allocator_relocateB8ne200100INS_9allocatorINS_10unique_ptrI14StabilizerCoreNS_14default_deleteIS3_EEEEEEPS6_EEvRT_T0_SB_SB_
FNA:6,110,_ZNSt3__134__uninitialized_allocator_relocateB8ne200100INS_9allocatorINS_6vectorIN2cv3MatENS1_IS4_EEEEEEPS6_EEvRT_T0_SB_SB_
FNA:6,110,_ZNSt3__134__uninitialized_allocator_relocateB8ne200100INS_9allocatorIP14StabilizerCoreEEPS3_EEvRT_T0_S8_S8_
FNA:6,585,_ZNSt3__134__uninitialized_allocator_relocateB8ne200100INS_9allocatorIdEEPdEEvRT_T0_S6_S6_
FNA:6,57691,_ZNSt3__134__uninitialized_allocator_relocateB8ne200100INS_9allocatorIfEEPfEEvRT_T0_S6_S6_
FNA:6,57691,_ZNSt3__134__uninitialized_allocator_relocateB8ne200100INS_9allocatorIhEEPhEEvRT_T0_S6_S6_
FNF:7
FNH:5
DA:517,7121
DA:518,83958
DA:519,76837
DA:520,7121
DA:526,14772
DA:527,14772
DA:529,0
DA:530,0
DA:531,0
DA:545,265
DA:546,265
DA:547,265
DA:548,265
DA:549,9130
DA:550,8865
DA:551,8865
DA:552,8865
DA:554,265
DA:555,265
DA:556,265
DA:572,0
DA:581,0
DA:587,265
DA:588,265
DA:589,530
DA:590,265
DA:591,530
DA:592,265
DA:619,181873
DA:628,7121
DA:629,14242
DA:630,7121
DA:631,7121
DA:632,83958
DA:634,76837
DA:638,76837
DA:639,76837
DA:641,7121
DA:642,7121
DA:643,7121
DA:645,349504
DA:646,174752
DA:647,174752
DA:649,181873
LF:44
LH:39
end_of_record
TN:
SF:/Library/Developer/CommandLineTools/SDKs/MacOSX.sdk/usr/include/c++/v1/__memory/unique_ptr.h
FNL:0,196,196
FNA:0,45,_ZNSt3__110unique_ptrI10CPUTrackerNS_14default_deleteIS1_EEEC1B8ne200100ILb1EvEEv
FNA:0,45,_ZNSt3__110unique_ptrI10CPUTrackerNS_14default_deleteIS1_EEEC2B8ne200100ILb1EvEEv
FNA:0,456,_ZNSt3__110unique_ptrI14StabilizerCoreNS_14default_deleteIS1_EEEC1B8ne200100ILb1EvEEv
FNA:0,456,_ZNSt3__110unique_ptrI14StabilizerCoreNS_14default_deleteIS1_EEEC2B8ne200100ILb1EvEEv
FNA:0,54728,_ZNSt3__110unique_ptrINS_12basic_stringIcNS_11char_traitsIcEENS_9allocatorIcEEEENS_14default_deleteIS6_EEEC1B8ne200100ILb1EvEEv
FNA:0,54728,_ZNSt3__110unique_ptrINS_12basic_stringIcNS_11char_traitsIcEENS_9allocatorIcEEEENS_14default_deleteIS6_EEEC2B8ne200100ILb1EvEEv
FNL:1,202,204
FNA:1,45,_ZNSt3__110unique_ptrI10CPUTrackerNS_14default_deleteIS1_EEEC1B8ne200100ILb1EvEEPS1_
FNA:1,45,_ZNSt3__110unique_ptrI10CPUTrackerNS_14default_deleteIS1_EEEC2B8ne200100ILb1EvEEPS1_
FNA:1,731,_ZNSt3__110unique_ptrI14StabilizerCoreNS_14default_deleteIS1_EEEC1B8ne200100ILb1EvEEPS1_
FNA:1,731,_ZNSt3__110unique_ptrI14StabilizerCoreNS_14default_deleteIS1_EEEC2B8ne200100ILb1EvEEPS1_
FNA:1,0,_ZNSt3__110unique_ptrINS_12basic_stringIcNS_11char_traitsIcEENS_9allocatorIcEEEENS_14default_deleteIS6_EEEC1B8ne200100ILb1EvEEPS6_
FNA:1,0,_ZNSt3__110unique_ptrINS_12basic_stringIcNS_11char_traitsIcEENS_9allocatorIcEEEENS_14default_deleteIS6_EEEC2B8ne200100ILb1EvEEPS6_
FNL:2,212,216
FNA:2,541,_ZNSt3__110unique_ptrIPN2cv3MatENS_22__allocator_destructorINS_9allocatorIS2_EEEEEC1B8ne200100ILb1EvEES3_NS_16__dependent_typeINS_27__unique_ptr_deleter_sfinaeIS7_EEXT_EE20__good_rval_ref_typeE
FNA:2,541,_ZNSt3__110unique_ptrIPN2cv3MatENS_22__allocator_destructorINS_9allocatorIS2_EEEEEC2B8ne200100ILb1EvEES3_NS_16__dependent_typeINS_27__unique_ptr_deleter_sfinaeIS7_EEXT_EE20__good_rval_ref_typeE
FNL:3,221,223
FNA:3,250,_ZNSt3__110unique_ptrI14StabilizerCoreNS_14default_deleteIS1_EEEC1B8ne200100EOS4_
FNA:3,250,_ZNSt3__110unique_ptrI14StabilizerCoreNS_14default_deleteIS1_EEEC2B8ne200100EOS4_
FNL:4,239,242
FNA:4,45,_ZNSt3__110unique_ptrI10CPUTrackerNS_14default_deleteIS1_EEEaSB8ne200100EOS4_
FNA:4,456,_ZNSt3__110unique_ptrI14StabilizerCoreNS_14default_deleteIS1_EEEaSB8ne200100EOS4_
FNA:4,0,_ZNSt3__110unique_ptrINS_12basic_stringIcNS_11char_traitsIcEENS_9allocatorIcEEEENS_14default_deleteIS6_EEEaSB8ne200100EOS9_
FNL:5,269,269
FNA:5,90,_ZNSt3__110unique_ptrI10CPUTrackerNS_14default_deleteIS1_EEED1B8ne200100Ev
FNA:5,90,_ZNSt3__110unique_ptrI10CPUTrackerNS_14default_deleteIS1_EEED2B8ne200100Ev
FNA:5,1437,_ZNSt3__110unique_ptrI14StabilizerCoreNS_14default_deleteIS1_EEED1B8ne200100Ev
FNA:5,1437,_ZNSt3__110unique_ptrI14StabilizerCoreNS_14default_deleteIS1_EEED2B8ne200100Ev
FNA:5,56576,_ZNSt3__110unique_ptrINS_12basic_stringIcNS_11char_traitsIcEENS_9allocatorIcEEEENS_14default_deleteIS6_EEED1B8ne200100Ev
FNA:5,56576,_ZNSt3__110unique_ptrINS_12basic_stringIcNS_11char_traitsIcEENS_9allocatorIcEEEENS_14default_deleteIS6_EEED2B8ne200100Ev
FNA:5,20,_ZNSt3__110unique_ptrINS_18basic_stringstreamIcNS_11char_traitsIcEENS_9allocatorIcEEEENS_14default_deleteIS6_EEED1B8ne200100Ev
FNA:5,20,_ZNSt3__110unique_ptrINS_18basic_stringstreamIcNS_11char_traitsIcEENS_9allocatorIcEEEENS_14default_deleteIS6_EEED2B8ne200100Ev
FNA:5,541,_ZNSt3__110unique_ptrIPN2cv3MatENS_22__allocator_destructorINS_9allocatorIS2_EEEEED1B8ne200100Ev
FNA:5,541,_ZNSt3__110unique_ptrIPN2cv3MatENS_22__allocator_destructorINS_9allocatorIS2_EEEEED2B8ne200100Ev
FNL:6,276,278
FNA:6,20,_ZNKSt3__110unique_ptrINS_18basic_stringstreamIcNS_11char_traitsIcEENS_9allocatorIcEEEENS_14default_deleteIS6_EEEdeB8ne200100Ev
FNL:7,280,280
FNA:7,65,_ZNKSt3__110unique_ptrI10CPUTrackerNS_14default_deleteIS1_EEEptB8ne200100Ev
FNA:7,50065,_ZNKSt3__110unique_ptrI14StabilizerCoreNS_14default_deleteIS1_EEEptB8ne200100Ev
FNA:7,0,_ZNKSt3__110unique_ptrINS_12basic_stringIcNS_11char_traitsIcEENS_9allocatorIcEEEENS_14default_deleteIS6_EEEptB8ne200100Ev
FNL:8,281,281
FNA:8,275,_ZNKSt3__110unique_ptrI14StabilizerCoreNS_14default_deleteIS1_EEE3getB8ne200100Ev
FNA:8,541,_ZNKSt3__110unique_ptrIPN2cv3MatENS_22__allocator_destructorINS_9allocatorIS2_EEEEE3getB8ne200100Ev
FNL:9,282,282
FNA:9,45,_ZNSt3__110unique_ptrI10CPUTrackerNS_14default_deleteIS1_EEE11get_deleterB8ne200100Ev
FNA:9,706,_ZNSt3__110unique_ptrI14StabilizerCoreNS_14default_deleteIS1_EEE11get_deleterB8ne200100Ev
FNA:9,0,_ZNSt3__110unique_ptrINS_12basic_stringIcNS_11char_traitsIcEENS_9allocatorIcEEEENS_14default_deleteIS6_EEE11get_deleterB8ne200100Ev
FNL:10,286,287
FNA:10,0,_ZNKSt3__110unique_ptrINS_12basic_stringIcNS_11char_traitsIcEENS_9allocatorIcEEEENS_14default_deleteIS6_EEEcvbB8ne200100Ev
FNL:11,290,294
FNA:11,45,_ZNSt3__110unique_ptrI10CPUTrackerNS_14default_deleteIS1_EEE7releaseB8ne200100Ev
FNA:11,706,_ZNSt3__110unique_ptrI14StabilizerCoreNS_14default_deleteIS1_EEE7releaseB8ne200100Ev
FNA:11,0,_ZNSt3__110unique_ptrINS_12basic_stringIcNS_11char_traitsIcEENS_9allocatorIcEEEENS_14default_deleteIS6_EEE7releaseB8ne200100Ev
FNA:11,541,_ZNSt3__110unique_ptrIPN2cv3MatENS_22__allocator_destructorINS_9allocatorIS2_EEEEE7releaseB8ne200100Ev
FNL:12,296,301
FNA:12,180,_ZNSt3__110unique_ptrI10CPUTrackerNS_14default_deleteIS1_EEE5resetB8ne200100EPS1_
FNA:12,2349,_ZNSt3__110unique_ptrI14StabilizerCoreNS_14default_deleteIS1_EEE5resetB8ne200100EPS1_
FNA:12,56576,_ZNSt3__110unique_ptrINS_12basic_stringIcNS_11char_traitsIcEENS_9allocatorIcEEEENS_14default_deleteIS6_EEE5resetB8ne200100EPS6_
FNA:12,20,_ZNSt3__110unique_ptrINS_18basic_stringstreamIcNS_11char_traitsIcEENS_9allocatorIcEEEENS_14default_deleteIS6_EEE5resetB8ne200100EPS6_
FNA:12,541,_ZNSt3__110unique_ptrIPN2cv3MatENS_22__allocator_destructorINS_9allocatorIS2_EEEEE5resetB8ne200100ES3_
FNL:13,691,692
FNA:13,0,_ZNSt3__1eqB8ne200100INS_12basic_stringIcNS_11char_traitsIcEENS_9allocatorIcEEEENS_14default_deleteIS6_EEEEbRKNS_10unique_ptrIT_T0_EEDn
FNL:14,702,703
FNA:14,0,_ZNSt3__1neB8ne200100INS_12basic_stringIcNS_11char_traitsIcEENS_9allocatorIcEEEENS_14default_deleteIS6_EEEEbRKNS_10unique_ptrIT_T0_EEDn
FNL:15,75,79
FNA:15,45,_ZNKSt3__114default_deleteI10CPUTrackerEclB8ne200100EPS1_
FNA:15,731,_ZNKSt3__114default_deleteI14StabilizerCoreEclB8ne200100EPS1_
FNA:15,0,_ZNKSt3__114default_deleteINS_12basic_stringIcNS_11char_traitsIcEENS_9allocatorIcEEEEEclB8ne200100EPS6_
FNA:15,20,_ZNKSt3__114default_deleteINS_18basic_stringstreamIcNS_11char_traitsIcEENS_9allocatorIcEEEEEclB8ne200100EPS6_
FNL:16,766,768
FNA:16,45,_ZNSt3__111make_uniqueB8ne200100I10CPUTrackerJELi0EEENS_10unique_ptrIT_NS_14default_deleteIS3_EEEEDpOT0_
FNA:16,731,_ZNSt3__111make_uniqueB8ne200100I14StabilizerCoreJELi0EEENS_10unique_ptrIT_NS_14default_deleteIS3_EEEEDpOT0_
FNA:16,0,_ZNSt3__111make_uniqueB8ne200100INS_12basic_stringIcNS_11char_traitsIcEENS_9allocatorIcEEEEJELi0EEENS_10unique_ptrIT_NS_14default_deleteIS8_EEEEDpOT0_
FNF:17
FNH:14
DA:75,796
DA:78,796
DA:79,796
DA:196,110458
DA:202,3104
DA:203,776
DA:204,2328
DA:212,2164
DA:213,541
DA:214,1082
DA:216,1082
DA:221,1000
DA:222,250
DA:223,750
DA:239,501
DA:240,501
DA:241,501
DA:242,501
DA:269,117328
DA:276,20
DA:278,20
DA:280,50130
DA:281,816
DA:282,751
DA:286,0
DA:287,0
DA:290,1292
DA:291,1292
DA:292,1292
DA:293,2584
DA:294,1292
DA:296,59666
DA:297,59666
DA:298,59666
DA:299,59666
DA:300,796
DA:301,59666
DA:691,0
DA:692,0
DA:702,0
DA:703,0
DA:766,776
DA:767,776
DA:768,0
LF:44
LH:37
end_of_record
TN:
SF:/Library/Developer/CommandLineTools/SDKs/MacOSX.sdk/usr/include/c++/v1/__new/allocate.h
FNL:0,101,116
FNA:0,5,_ZNSt3__119__libcpp_deallocateB8ne200100IN14StabilizerCore16StabilizerParamsEEEvPNS_15__type_identityIT_E4typeENS_15__element_countEm
FNA:0,7834,_ZNSt3__119__libcpp_deallocateB8ne200100IN2cv3MatEEEvPNS_15__type_identityIT_E4typeENS_15__element_countEm
FNA:0,58485,_ZNSt3__119__libcpp_deallocateB8ne200100IN2cv6Point_IfEEEEvPNS_15__type_identityIT_E4typeENS_15__element_countEm
FNA:0,30,_ZNSt3__119__libcpp_deallocateB8ne200100IN2cv6Point_IiEEEEvPNS_15__type_identityIT_E4typeENS_15__element_countEm
FNA:0,165,_ZNSt3__119__libcpp_deallocateB8ne200100INS_10unique_ptrI14StabilizerCoreNS_14default_deleteIS2_EEEEEEvPNS_15__type_identityIT_E4typeENS_15__element_countEm
FNA:0,55,_ZNSt3__119__libcpp_deallocateB8ne200100INS_12basic_stringIcNS_11char_traitsIcEENS_9allocatorIcEEEEEEvPNS_15__type_identityIT_E4typeENS_15__element_countEm
FNA:0,5,_ZNSt3__119__libcpp_deallocateB8ne200100INS_4pairIiiEEEEvPNS_15__type_identityIT_E4typeENS_15__element_countEm
FNA:0,115,_ZNSt3__119__libcpp_deallocateB8ne200100INS_6vectorIN2cv3MatENS_9allocatorIS3_EEEEEEvPNS_15__type_identityIT_E4typeENS_15__element_countEm
FNA:0,115,_ZNSt3__119__libcpp_deallocateB8ne200100IP14StabilizerCoreEEvPNS_15__type_identityIT_E4typeENS_15__element_countEm
FNA:0,553,_ZNSt3__119__libcpp_deallocateB8ne200100IPN2cv3MatEEEvPNS_15__type_identityIT_E4typeENS_15__element_countEm
FNA:0,54,_ZNSt3__119__libcpp_deallocateB8ne200100IcEEvPNS_15__type_identityIT_E4typeENS_15__element_countEm
FNA:0,585,_ZNSt3__119__libcpp_deallocateB8ne200100IdEEvPNS_15__type_identityIT_E4typeENS_15__element_countEm
FNA:0,57691,_ZNSt3__119__libcpp_deallocateB8ne200100IfEEvPNS_15__type_identityIT_E4typeENS_15__element_countEm
FNA:0,57691,_ZNSt3__119__libcpp_deallocateB8ne200100IhEEvPNS_15__type_identityIT_E4typeENS_15__element_countEm
FNA:0,10,_ZNSt3__119__libcpp_deallocateB8ne200100IiEEvPNS_15__type_identityIT_E4typeENS_15__element_countEm
FNL:1,29,31
FNA:1,367800,_ZNSt3__124__is_overaligned_for_newB8ne200100Em
FNL:2,53,55
FNA:2,5,_ZNSt3__121__libcpp_operator_newB8ne200100IN14StabilizerCore16StabilizerParamsEEEPvm
FNA:2,7834,_ZNSt3__121__libcpp_operator_newB8ne200100IN2cv3MatEEEPvm
FNA:2,58400,_ZNSt3__121__libcpp_operator_newB8ne200100IN2cv6Point_IfEEEEPvm
FNA:2,165,_ZNSt3__121__libcpp_operator_newB8ne200100INS_10unique_ptrI14StabilizerCoreNS_14default_deleteIS2_EEEEEEPvm
FNA:2,55,_ZNSt3__121__libcpp_operator_newB8ne200100INS_12basic_stringIcNS_11char_traitsIcEENS_9allocatorIcEEEEEEPvm
FNA:2,5,_ZNSt3__121__libcpp_operator_newB8ne200100INS_4pairIiiEEEEPvm
FNA:2,115,_ZNSt3__121__libcpp_operator_newB8ne200100INS_6vectorIN2cv3MatENS_9allocatorIS3_EEEEEEPvm
FNA:2,115,_ZNSt3__121__libcpp_operator_newB8ne200100IP14StabilizerCoreEEPvm
FNA:2,553,_ZNSt3__121__libcpp_operator_newB8ne200100IPN2cv3MatEEEPvm
FNA:2,1183,_ZNSt3__121__libcpp_operator_newB8ne200100IcEEPvm
FNA:2,585,_ZNSt3__121__libcpp_operator_newB8ne200100IdEEPvm
FNA:2,57691,_ZNSt3__121__libcpp_operator_newB8ne200100IfEEPvm
FNA:2,57691,_ZNSt3__121__libcpp_operator_newB8ne200100IhEEPvm
FNA:2,10,_ZNSt3__121__libcpp_operator_newB8ne200100IiEEPvm
FNL:3,62,64
FNA:3,0,_ZNSt3__121__libcpp_operator_newB8ne200100IN14StabilizerCore16StabilizerParamsEJmSt11align_val_tEEEPvDpT0_
FNA:3,0,_ZNSt3__121__libcpp_operator_newB8ne200100IN2cv3MatEJmSt11align_val_tEEEPvDpT0_
FNA:3,0,_ZNSt3__121__libcpp_operator_newB8ne200100IN2cv6Point_IfEEJmSt11align_val_tEEEPvDpT0_
FNA:3,0,_ZNSt3__121__libcpp_operator_newB8ne200100INS_10unique_ptrI14StabilizerCoreNS_14default_deleteIS2_EEEEJmSt11align_val_tEEEPvDpT0_
FNA:3,0,_ZNSt3__121__libcpp_operator_newB8ne200100INS_12basic_stringIcNS_11char_traitsIcEENS_9allocatorIcEEEEJmSt11align_val_tEEEPvDpT0_
FNA:3,0,_ZNSt3__121__libcpp_operator_newB8ne200100INS_4pairIiiEEJmSt11align_val_tEEEPvDpT0_
FNA:3,0,_ZNSt3__121__libcpp_operator_newB8ne200100INS_6vectorIN2cv3MatENS_9allocatorIS3_EEEEJmSt11align_val_tEEEPvDpT0_
FNA:3,0,_ZNSt3__121__libcpp_operator_newB8ne200100IP14StabilizerCoreJmSt11align_val_tEEEPvDpT0_
FNA:3,0,_ZNSt3__121__libcpp_operator_newB8ne200100IPN2cv3MatEJmSt11align_val_tEEEPvDpT0_
FNA:3,0,_ZNSt3__121__libcpp_operator_newB8ne200100IcJmSt11align_val_tEEEPvDpT0_
FNA:3,0,_ZNSt3__121__libcpp_operator_newB8ne200100IdJmSt11align_val_tEEEPvDpT0_
FNA:3,0,_ZNSt3__121__libcpp_operator_newB8ne200100IfJmSt11align_val_tEEEPvDpT0_
FNA:3,0,_ZNSt3__121__libcpp_operator_newB8ne200100IhJmSt11align_val_tEEEPvDpT0_
FNA:3,0,_ZNSt3__121__libcpp_operator_newB8ne200100IiJmSt11align_val_tEEEPvDpT0_
FNL:4,71,77
FNA:4,5,_ZNSt3__124__libcpp_operator_deleteB8ne200100IJPN14StabilizerCore16StabilizerParamsEEEEvDpT_
FNA:4,0,_ZNSt3__124__libcpp_operator_deleteB8ne200100IJPN14StabilizerCore16StabilizerParamsESt11align_val_tEEEvDpT_
FNA:4,7834,_ZNSt3__124__libcpp_operator_deleteB8ne200100IJPN2cv3MatEEEEvDpT_
FNA:4,0,_ZNSt3__124__libcpp_operator_deleteB8ne200100IJPN2cv3MatESt11align_val_tEEEvDpT_
FNA:4,58485,_ZNSt3__124__libcpp_operator_deleteB8ne200100IJPN2cv6Point_IfEEEEEvDpT_
FNA:4,0,_ZNSt3__124__libcpp_operator_deleteB8ne200100IJPN2cv6Point_IfEESt11align_val_tEEEvDpT_
FNA:4,30,_ZNSt3__124__libcpp_operator_deleteB8ne200100IJPN2cv6Point_IiEEEEEvDpT_
FNA:4,0,_ZNSt3__124__libcpp_operator_deleteB8ne200100IJPN2cv6Point_IiEESt11align_val_tEEEvDpT_
FNA:4,165,_ZNSt3__124__libcpp_operator_deleteB8ne200100IJPNS_10unique_ptrI14StabilizerCoreNS_14default_deleteIS2_EEEEEEEvDpT_
FNA:4,0,_ZNSt3__124__libcpp_operator_deleteB8ne200100IJPNS_10unique_ptrI14StabilizerCoreNS_14default_deleteIS2_EEEESt11align_val_tEEEvDpT_
FNA:4,55,_ZNSt3__124__libcpp_operator_deleteB8ne200100IJPNS_12basic_stringIcNS_11char_traitsIcEENS_9allocatorIcEEEEEEEvDpT_
FNA:4,0,_ZNSt3__124__libcpp_operator_deleteB8ne200100IJPNS_12basic_stringIcNS_11char_traitsIcEENS_9allocatorIcEEEESt11align_val_tEEEvDpT_
FNA:4,5,_ZNSt3__124__libcpp_operator_deleteB8ne200100IJPNS_4pairIiiEEEEEvDpT_
FNA:4,0,_ZNSt3__124__libcpp_operator_deleteB8ne200100IJPNS_4pairIiiEESt11align_val_tEEEvDpT_
FNA:4,115,_ZNSt3__124__libcpp_operator_deleteB8ne200100IJPNS_6vectorIN2cv3MatENS_9allocatorIS3_EEEEEEEvDpT_
FNA:4,0,_ZNSt3__124__libcpp_operator_deleteB8ne200100IJPNS_6vectorIN2cv3MatENS_9allocatorIS3_EEEESt11align_val_tEEEvDpT_
FNA:4,115,_ZNSt3__124__libcpp_operator_deleteB8ne200100IJPP14StabilizerCoreEEEvDpT_
FNA:4,0,_ZNSt3__124__libcpp_operator_deleteB8ne200100IJPP14StabilizerCoreSt11align_val_tEEEvDpT_
FNA:4,553,_ZNSt3__124__libcpp_operator_deleteB8ne200100IJPPN2cv3MatEEEEvDpT_
FNA:4,0,_ZNSt3__124__libcpp_operator_deleteB8ne200100IJPPN2cv3MatESt11align_val_tEEEvDpT_
FNA:4,54,_ZNSt3__124__libcpp_operator_deleteB8ne200100IJPcEEEvDpT_
FNA:4,0,_ZNSt3__124__libcpp_operator_deleteB8ne200100IJPcSt11align_val_tEEEvDpT_
FNA:4,585,_ZNSt3__124__libcpp_operator_deleteB8ne200100IJPdEEEvDpT_
FNA:4,0,_ZNSt3__124__libcpp_operator_deleteB8ne200100IJPdSt11align_val_tEEEvDpT_
FNA:4,57691,_ZNSt3__124__libcpp_operator_deleteB8ne200100IJPfEEEvDpT_
FNA:4,0,_ZNSt3__124__libcpp_operator_deleteB8ne200100IJPfSt11align_val_tEEEvDpT_
FNA:4,57691,_ZNSt3__124__libcpp_operator_deleteB8ne200100IJPhEEEvDpT_
FNA:4,0,_ZNSt3__124__libcpp_operator_deleteB8ne200100IJPhSt11align_val_tEEEvDpT_
FNA:4,10,_ZNSt3__124__libcpp_operator_deleteB8ne200100IJPiEEEvDpT_
FNA:4,0,_ZNSt3__124__libcpp_operator_deleteB8ne200100IJPiSt11align_val_tEEEvDpT_
FNL:5,81,92
FNA:5,5,_ZNSt3__117__libcpp_allocateB8ne200100IN14StabilizerCore16StabilizerParamsEEEPT_NS_15__element_countEm
FNA:5,7834,_ZNSt3__117__libcpp_allocateB8ne200100IN2cv3MatEEEPT_NS_15__element_countEm
FNA:5,58400,_ZNSt3__117__libcpp_allocateB8ne200100IN2cv6Point_IfEEEEPT_NS_15__element_countEm
FNA:5,165,_ZNSt3__117__libcpp_allocateB8ne200100INS_10unique_ptrI14StabilizerCoreNS_14default_deleteIS2_EEEEEEPT_NS_15__element_countEm
FNA:5,55,_ZNSt3__117__libcpp_allocateB8ne200100INS_12basic_stringIcNS_11char_traitsIcEENS_9allocatorIcEEEEEEPT_NS_15__element_countEm
FNA:5,5,_ZNSt3__117__libcpp_allocateB8ne200100INS_4pairIiiEEEEPT_NS_15__element_countEm
FNA:5,115,_ZNSt3__117__libcpp_allocateB8ne200100INS_6vectorIN2cv3MatENS_9allocatorIS3_EEEEEEPT_NS_15__element_countEm
FNA:5,115,_ZNSt3__117__libcpp_allocateB8ne200100IP14StabilizerCoreEEPT_NS_15__element_countEm
FNA:5,553,_ZNSt3__117__libcpp_allocateB8ne200100IPN2cv3MatEEEPT_NS_15__element_countEm
FNA:5,1183,_ZNSt3__117__libcpp_allocateB8ne200100IcEEPT_NS_15__element_countEm
FNA:5,585,_ZNSt3__117__libcpp_allocateB8ne200100IdEEPT_NS_15__element_countEm
FNA:5,57691,_ZNSt3__117__libcpp_allocateB8ne200100IfEEPT_NS_15__element_countEm
FNA:5,57691,_ZNSt3__117__libcpp_allocateB8ne200100IhEEPT_NS_15__element_countEm
FNA:5,10,_ZNSt3__117__libcpp_allocateB8ne200100IiEEPT_NS_15__element_countEm
FNF:6
FNH:5
DA:29,367800
DA:31,367800
DA:53,184407
DA:55,184407
DA:62,0
DA:64,0
DA:71,183393
DA:73,183393
DA:77,183393
DA:81,184407
DA:82,184407
DA:84,184407
DA:85,0
DA:86,0
DA:87,0
DA:91,184407
DA:92,184407
DA:101,183393
DA:103,183393
DA:109,183393
DA:110,0
DA:111,0
DA:112,0
DA:113,183393
DA:116,183393
LF:25
LH:17
end_of_record
TN:
SF:/Library/Developer/CommandLineTools/SDKs/MacOSX.sdk/usr/include/c++/v1/__new/exceptions.h
FNL:0,66,68
FNA:0,0,_ZSt28__throw_bad_array_new_lengthB8ne200100v
FNF:1
FNH:0
DA:66,0
DA:68,0
LF:2
LH:0
end_of_record
TN:
SF:/Library/Developer/CommandLineTools/SDKs/MacOSX.sdk/usr/include/c++/v1/__numeric/accumulate.h
FNL:0,27,34
FNA:0,80,_ZNSt3__110accumulateB8ne200100INS_11__wrap_iterIPKdEEdEET0_T_S6_S5_
FNF:1
FNH:1
DA:27,80
DA:28,5330
DA:32,5250
DA:34,80
LF:4
LH:4
end_of_record
TN:
SF:/Library/Developer/CommandLineTools/SDKs/MacOSX.sdk/usr/include/c++/v1/__ostream/basic_ostream.h
FNL:0,179,179
FNA:0,0,_ZNSt3__113basic_ostreamIcNS_11char_traitsIcEEEC2B8ne200100Ev
FNL:1,193,193
FNA:1,72772,_ZNKSt3__113basic_ostreamIcNS_11char_traitsIcEEE6sentrycvbB8ne200100Ev
FNL:2,434,435
FNA:2,72772,_ZNSt3__1lsB8ne200100INS_11char_traitsIcEEEERNS_13basic_ostreamIcT_EES6_PKc
FNL:3,539,542
FNA:3,72752,_ZNSt3__14endlB8ne200100IcNS_11char_traitsIcEEEERNS_13basic_ostreamIT_T0_EES7_
FNL:4,573,574
FNA:4,0,_ZNSt3__1lsB8ne200100IcNS_11char_traitsIcEENS_9allocatorIcEEEERNS_13basic_ostreamIT_T0_EES9_RKNS_12basic_stringIS6_S7_T1_EE
FNL:5,76,77
FNA:5,72752,_ZNSt3__113basic_ostreamIcNS_11char_traitsIcEEElsB8ne200100EPFRS3_S4_E
FNF:6
FNH:4
DA:76,72752
DA:77,72752
DA:179,0
DA:193,72772
DA:434,72772
DA:435,72772
DA:539,72752
DA:540,72752
DA:541,72752
DA:542,72752
DA:573,0
DA:574,0
LF:12
LH:9
end_of_record
TN:
SF:/Library/Developer/CommandLineTools/SDKs/MacOSX.sdk/usr/include/c++/v1/__ostream/put_character_sequence.h
FNL:0,30,53
FNA:0,72772,_ZNSt3__124__put_character_sequenceB8ne200100IcNS_11char_traitsIcEEEERNS_13basic_ostreamIT_T0_EES7_PKS4_m
FNF:1
FNH:1
DA:30,72772
DA:34,72772
DA:35,72772
DA:37,145544
DA:38,72772
DA:39,72772
DA:40,72772
DA:41,72772
DA:42,72772
DA:43,72772
DA:44,72772
DA:45,0
DA:46,72772
DA:48,72772
DA:49,0
DA:50,0
DA:52,72772
DA:53,0
LF:18
LH:14
end_of_record
TN:
SF:/Library/Developer/CommandLineTools/SDKs/MacOSX.sdk/usr/include/c++/v1/__split_buffer
FNL:0,109
FNA:0,9086,_ZNSt3__114__split_bufferIPN2cv3MatENS_9allocatorIS3_EEE5beginB8ne200100Ev
FNA:0,0,_ZNSt3__114__split_bufferIPN2cv3MatERNS_9allocatorIS3_EEE5beginB8ne200100Ev
FNL:1,110
FNA:1,24,_ZNKSt3__114__split_bufferIPN2cv3MatENS_9allocatorIS3_EEE5beginB8ne200100Ev
FNL:2,112
FNA:2,1346,_ZNSt3__114__split_bufferIPN2cv3MatENS_9allocatorIS3_EEE3endB8ne200100Ev
FNA:2,0,_ZNSt3__114__split_bufferIPN2cv3MatERNS_9allocatorIS3_EEE3endB8ne200100Ev
FNL:3,115
FNA:3,7106,_ZNSt3__114__split_bufferIN2cv3MatERNS_9allocatorIS2_EEE5clearB8ne200100Ev
FNA:3,58400,_ZNSt3__114__split_bufferIN2cv6Point_IfEERNS_9allocatorIS3_EEE5clearB8ne200100Ev
FNA:3,165,_ZNSt3__114__split_bufferINS_10unique_ptrI14StabilizerCoreNS_14default_deleteIS2_EEEERNS_9allocatorIS5_EEE5clearB8ne200100Ev
FNA:3,110,_ZNSt3__114__split_bufferINS_6vectorIN2cv3MatENS_9allocatorIS3_EEEERNS4_IS6_EEE5clearB8ne200100Ev
FNA:3,110,_ZNSt3__114__split_bufferIP14StabilizerCoreRNS_9allocatorIS2_EEE5clearB8ne200100Ev
FNA:3,793,_ZNSt3__114__split_bufferIPN2cv3MatENS_9allocatorIS3_EEE5clearB8ne200100Ev
FNA:3,553,_ZNSt3__114__split_bufferIPN2cv3MatERNS_9allocatorIS3_EEE5clearB8ne200100Ev
FNA:3,585,_ZNSt3__114__split_bufferIdRNS_9allocatorIdEEE5clearB8ne200100Ev
FNA:3,57691,_ZNSt3__114__split_bufferIfRNS_9allocatorIfEEE5clearB8ne200100Ev
FNA:3,57691,_ZNSt3__114__split_bufferIhRNS_9allocatorIhEEE5clearB8ne200100Ev
FNL:4,117
FNA:4,10230,_ZNKSt3__114__split_bufferIPN2cv3MatENS_9allocatorIS3_EEE4sizeB8ne200100Ev
FNL:5,121
FNA:5,7776,_ZNKSt3__114__split_bufferIPN2cv3MatENS_9allocatorIS3_EEE5emptyB8ne200100Ev
FNL:6,123
FNA:6,5876,_ZNKSt3__114__split_bufferIN2cv3MatERNS_9allocatorIS2_EEE8capacityB8ne200100Ev
FNA:6,158,_ZNKSt3__114__split_bufferIN2cv6Point_IfEERNS_9allocatorIS3_EEE8capacityB8ne200100Ev
FNA:6,123,_ZNKSt3__114__split_bufferINS_10unique_ptrI14StabilizerCoreNS_14default_deleteIS2_EEEERNS_9allocatorIS5_EEE8capacityB8ne200100Ev
FNA:6,80,_ZNKSt3__114__split_bufferINS_6vectorIN2cv3MatENS_9allocatorIS3_EEEERNS4_IS6_EEE8capacityB8ne200100Ev
FNA:6,80,_ZNKSt3__114__split_bufferIP14StabilizerCoreRNS_9allocatorIS2_EEE8capacityB8ne200100Ev
FNA:6,1659,_ZNKSt3__114__split_bufferIPN2cv3MatENS_9allocatorIS3_EEE8capacityB8ne200100Ev
FNA:6,0,_ZNKSt3__114__split_bufferIPN2cv3MatERNS_9allocatorIS3_EEE8capacityB8ne200100Ev
FNA:6,505,_ZNKSt3__114__split_bufferIdRNS_9allocatorIdEEE8capacityB8ne200100Ev
FNA:6,0,_ZNKSt3__114__split_bufferIfRNS_9allocatorIfEEE8capacityB8ne200100Ev
FNA:6,0,_ZNKSt3__114__split_bufferIhRNS_9allocatorIhEEE8capacityB8ne200100Ev
FNL:7,131
FNA:7,0,_ZNKSt3__114__split_bufferIPN2cv3MatENS_9allocatorIS3_EEE12__back_spareB8ne200100Ev
FNL:8,135
FNA:8,0,_ZNSt3__114__split_bufferIPN2cv3MatENS_9allocatorIS3_EEE5frontB8ne200100Ev
FNL:9,137
FNA:9,24,_ZNSt3__114__split_bufferIPN2cv3MatERNS_9allocatorIS3_EEE4backB8ne200100Ev
FNL:10,147
FNA:10,0,_ZNSt3__114__split_bufferIPN2cv3MatENS_9allocatorIS3_EEE9pop_frontB8ne200100Ev
FNL:11,165
FNA:11,0,_ZNSt3__114__split_bufferIPN2cv3MatENS_9allocatorIS3_EEE19__destruct_at_beginB8ne200100EPS3_
FNL:12,172
FNA:12,7106,_ZNSt3__114__split_bufferIN2cv3MatERNS_9allocatorIS2_EEE17__destruct_at_endB8ne200100EPS2_
FNA:12,58400,_ZNSt3__114__split_bufferIN2cv6Point_IfEERNS_9allocatorIS3_EEE17__destruct_at_endB8ne200100EPS3_
FNA:12,165,_ZNSt3__114__split_bufferINS_10unique_ptrI14StabilizerCoreNS_14default_deleteIS2_EEEERNS_9allocatorIS5_EEE17__destruct_at_endB8ne200100EPS5_
FNA:12,110,_ZNSt3__114__split_bufferINS_6vectorIN2cv3MatENS_9allocatorIS3_EEEERNS4_IS6_EEE17__destruct_at_endB8ne200100EPS6_
FNA:12,110,_ZNSt3__114__split_bufferIP14StabilizerCoreRNS_9allocatorIS2_EEE17__destruct_at_endB8ne200100EPS2_
FNA:12,793,_ZNSt3__114__split_bufferIPN2cv3MatENS_9allocatorIS3_EEE17__destruct_at_endB8ne200100EPS3_
FNA:12,553,_ZNSt3__114__split_bufferIPN2cv3MatERNS_9allocatorIS3_EEE17__destruct_at_endB8ne200100EPS3_
FNA:12,585,_ZNSt3__114__split_bufferIdRNS_9allocatorIdEEE17__destruct_at_endB8ne200100EPd
FNA:12,57691,_ZNSt3__114__split_bufferIfRNS_9allocatorIfEEE17__destruct_at_endB8ne200100EPf
FNA:12,57691,_ZNSt3__114__split_bufferIhRNS_9allocatorIhEEE17__destruct_at_endB8ne200100EPh
FNL:13,194
FNA:13,15,_ZNSt3__114__split_bufferIN2cv3MatERNS_9allocatorIS2_EEE21_ConstructTransactionC1B8ne200100EPPS2_m
FNA:13,15,_ZNSt3__114__split_bufferIN2cv3MatERNS_9allocatorIS2_EEE21_ConstructTransactionC2B8ne200100EPPS2_m
FNA:13,57691,_ZNSt3__114__split_bufferIN2cv6Point_IfEERNS_9allocatorIS3_EEE21_ConstructTransactionC1B8ne200100EPPS3_m
FNA:13,57691,_ZNSt3__114__split_bufferIN2cv6Point_IfEERNS_9allocatorIS3_EEE21_ConstructTransactionC2B8ne200100EPPS3_m
FNA:13,0,_ZNSt3__114__split_bufferIPN2cv3MatERNS_9allocatorIS3_EEE21_ConstructTransactionC1B8ne200100EPPS3_m
FNA:13,0,_ZNSt3__114__split_bufferIPN2cv3MatERNS_9allocatorIS3_EEE21_ConstructTransactionC2B8ne200100EPPS3_m
FNL:14,199
FNA:14,15,_ZNSt3__114__split_bufferIN2cv3MatERNS_9allocatorIS2_EEE21_ConstructTransactionD1B8ne200100Ev
FNA:14,15,_ZNSt3__114__split_bufferIN2cv3MatERNS_9allocatorIS2_EEE21_ConstructTransactionD2B8ne200100Ev
FNA:14,57691,_ZNSt3__114__split_bufferIN2cv6Point_IfEERNS_9allocatorIS3_EEE21_ConstructTransactionD1B8ne200100Ev
FNA:14,57691,_ZNSt3__114__split_bufferIN2cv6Point_IfEERNS_9allocatorIS3_EEE21_ConstructTransactionD2B8ne200100Ev
FNA:14,0,_ZNSt3__114__split_bufferIPN2cv3MatERNS_9allocatorIS3_EEE21_ConstructTransactionD1B8ne200100Ev
FNA:14,0,_ZNSt3__114__split_bufferIPN2cv3MatERNS_9allocatorIS3_EEE21_ConstructTransactionD2B8ne200100Ev
FNL:15,235
FNA:15,57691,_ZNSt3__114__split_bufferIN2cv6Point_IfEERNS_9allocatorIS3_EEE18__construct_at_endEm
FNL:16,278
FNA:16,0,_ZNSt3__114__split_bufferIPN2cv3MatERNS_9allocatorIS3_EEE18__construct_at_endINS_13move_iteratorIPS3_EELi0EEEvT_SC_
FNL:17,285
FNA:17,15,_ZNSt3__114__split_bufferIN2cv3MatERNS_9allocatorIS2_EEE28__construct_at_end_with_sizeINS_11__wrap_iterIPS2_EEEEvT_m
FNA:17,0,_ZNSt3__114__split_bufferIPN2cv3MatERNS_9allocatorIS3_EEE28__construct_at_end_with_sizeINS_13move_iteratorIPS3_EEEEvT_m
FNL:18,301
FNA:18,0,_ZNSt3__114__split_bufferIPN2cv3MatENS_9allocatorIS3_EEE19__destruct_at_beginEPS3_NS_17integral_constantIbLb1EEE
FNL:19,307
FNA:19,7106,_ZNSt3__114__split_bufferIN2cv3MatERNS_9allocatorIS2_EEE17__destruct_at_endB8ne200100EPS2_NS_17integral_constantIbLb0EEE
FNA:19,58400,_ZNSt3__114__split_bufferIN2cv6Point_IfEERNS_9allocatorIS3_EEE17__destruct_at_endB8ne200100EPS3_NS_17integral_constantIbLb0EEE
FNA:19,165,_ZNSt3__114__split_bufferINS_10unique_ptrI14StabilizerCoreNS_14default_deleteIS2_EEEERNS_9allocatorIS5_EEE17__destruct_at_endB8ne200100EPS5_NS_17integral_constantIbLb0EEE
FNA:19,110,_ZNSt3__114__split_bufferINS_6vectorIN2cv3MatENS_9allocatorIS3_EEEERNS4_IS6_EEE17__destruct_at_endB8ne200100EPS6_NS_17integral_constantIbLb0EEE
FNA:19,110,_ZNSt3__114__split_bufferIP14StabilizerCoreRNS_9allocatorIS2_EEE17__destruct_at_endB8ne200100EPS2_NS_17integral_constantIbLb0EEE
FNA:19,793,_ZNSt3__114__split_bufferIPN2cv3MatENS_9allocatorIS3_EEE17__destruct_at_endB8ne200100EPS3_NS_17integral_constantIbLb0EEE
FNA:19,553,_ZNSt3__114__split_bufferIPN2cv3MatERNS_9allocatorIS3_EEE17__destruct_at_endB8ne200100EPS3_NS_17integral_constantIbLb0EEE
FNA:19,585,_ZNSt3__114__split_bufferIdRNS_9allocatorIdEEE17__destruct_at_endB8ne200100EPdNS_17integral_constantIbLb0EEE
FNA:19,57691,_ZNSt3__114__split_bufferIfRNS_9allocatorIfEEE17__destruct_at_endB8ne200100EPfNS_17integral_constantIbLb0EEE
FNA:19,57691,_ZNSt3__114__split_bufferIhRNS_9allocatorIhEEE17__destruct_at_endB8ne200100EPhNS_17integral_constantIbLb0EEE
FNL:20,320
FNA:20,7106,_ZNSt3__114__split_bufferIN2cv3MatERNS_9allocatorIS2_EEEC1EmmS5_
FNA:20,7106,_ZNSt3__114__split_bufferIN2cv3MatERNS_9allocatorIS2_EEEC2EmmS5_
FNA:20,58400,_ZNSt3__114__split_bufferIN2cv6Point_IfEERNS_9allocatorIS3_EEEC1EmmS6_
FNA:20,58400,_ZNSt3__114__split_bufferIN2cv6Point_IfEERNS_9allocatorIS3_EEEC2EmmS6_
FNA:20,165,_ZNSt3__114__split_bufferINS_10unique_ptrI14StabilizerCoreNS_14default_deleteIS2_EEEERNS_9allocatorIS5_EEEC1EmmS8_
FNA:20,165,_ZNSt3__114__split_bufferINS_10unique_ptrI14StabilizerCoreNS_14default_deleteIS2_EEEERNS_9allocatorIS5_EEEC2EmmS8_
FNA:20,110,_ZNSt3__114__split_bufferINS_6vectorIN2cv3MatENS_9allocatorIS3_EEEERNS4_IS6_EEEC1EmmS8_
FNA:20,110,_ZNSt3__114__split_bufferINS_6vectorIN2cv3MatENS_9allocatorIS3_EEEERNS4_IS6_EEEC2EmmS8_
FNA:20,110,_ZNSt3__114__split_bufferIP14StabilizerCoreRNS_9allocatorIS2_EEEC1EmmS5_
FNA:20,110,_ZNSt3__114__split_bufferIP14StabilizerCoreRNS_9allocatorIS2_EEEC2EmmS5_
FNA:20,553,_ZNSt3__114__split_bufferIPN2cv3MatERNS_9allocatorIS3_EEEC1EmmS6_
FNA:20,553,_ZNSt3__114__split_bufferIPN2cv3MatERNS_9allocatorIS3_EEEC2EmmS6_
FNA:20,585,_ZNSt3__114__split_bufferIdRNS_9allocatorIdEEEC1EmmS3_
FNA:20,585,_ZNSt3__114__split_bufferIdRNS_9allocatorIdEEEC2EmmS3_
FNA:20,57691,_ZNSt3__114__split_bufferIfRNS_9allocatorIfEEEC1EmmS3_
FNA:20,57691,_ZNSt3__114__split_bufferIfRNS_9allocatorIfEEEC2EmmS3_
FNA:20,57691,_ZNSt3__114__split_bufferIhRNS_9allocatorIhEEEC1EmmS3_
FNA:20,57691,_ZNSt3__114__split_bufferIhRNS_9allocatorIhEEEC2EmmS3_
FNL:21,334
FNA:21,7106,_ZNSt3__114__split_bufferIN2cv3MatERNS_9allocatorIS2_EEED1Ev
FNA:21,7106,_ZNSt3__114__split_bufferIN2cv3MatERNS_9allocatorIS2_EEED2Ev
FNA:21,58400,_ZNSt3__114__split_bufferIN2cv6Point_IfEERNS_9allocatorIS3_EEED1Ev
FNA:21,58400,_ZNSt3__114__split_bufferIN2cv6Point_IfEERNS_9allocatorIS3_EEED2Ev
FNA:21,165,_ZNSt3__114__split_bufferINS_10unique_ptrI14StabilizerCoreNS_14default_deleteIS2_EEEERNS_9allocatorIS5_EEED1Ev
FNA:21,165,_ZNSt3__114__split_bufferINS_10unique_ptrI14StabilizerCoreNS_14default_deleteIS2_EEEERNS_9allocatorIS5_EEED2Ev
FNA:21,110,_ZNSt3__114__split_bufferINS_6vectorIN2cv3MatENS_9allocatorIS3_EEEERNS4_IS6_EEED1Ev
FNA:21,110,_ZNSt3__114__split_bufferINS_6vectorIN2cv3MatENS_9allocatorIS3_EEEERNS4_IS6_EEED2Ev
FNA:21,110,_ZNSt3__114__split_bufferIP14StabilizerCoreRNS_9allocatorIS2_EEED1Ev
FNA:21,110,_ZNSt3__114__split_bufferIP14StabilizerCoreRNS_9allocatorIS2_EEED2Ev
FNA:21,793,_ZNSt3__114__split_bufferIPN2cv3MatENS_9allocatorIS3_EEED1Ev
FNA:21,793,_ZNSt3__114__split_bufferIPN2cv3MatENS_9allocatorIS3_EEED2Ev
FNA:21,553,_ZNSt3__114__split_bufferIPN2cv3MatERNS_9allocatorIS3_EEED1Ev
FNA:21,553,_ZNSt3__114__split_bufferIPN2cv3MatERNS_9allocatorIS3_EEED2Ev
FNA:21,585,_ZNSt3__114__split_bufferIdRNS_9allocatorIdEEED1Ev
FNA:21,585,_ZNSt3__114__split_bufferIdRNS_9allocatorIdEEED2Ev
FNA:21,57691,_ZNSt3__114__split_bufferIfRNS_9allocatorIfEEED1Ev
FNA:21,57691,_ZNSt3__114__split_bufferIfRNS_9allocatorIfEEED2Ev
FNA:21,57691,_ZNSt3__114__split_bufferIhRNS_9allocatorIhEEED1Ev
FNA:21,57691,_ZNSt3__114__split_bufferIhRNS_9allocatorIhEEED2Ev
FNL:22,428
FNA:22,0,_ZNSt3__114__split_bufferIPN2cv3MatENS_9allocatorIS3_EEE13emplace_frontIJS3_EEEvDpOT_
FNA:22,0,_ZNSt3__114__split_bufferIPN2cv3MatERNS_9allocatorIS3_EEE13emplace_frontIJRS3_EEEvDpOT_
FNL:23,451
FNA:23,0,_ZNSt3__114__split_bufferIPN2cv3MatENS_9allocatorIS3_EEE12emplace_backIJRS3_EEEvDpOT_
FNA:23,0,_ZNSt3__114__split_bufferIPN2cv3MatENS_9allocatorIS3_EEE12emplace_backIJS3_EEEvDpOT_
FNA:23,0,_ZNSt3__114__split_bufferIPN2cv3MatERNS_9allocatorIS3_EEE12emplace_backIJRS3_EEEvDpOT_
FNA:23,553,_ZNSt3__114__split_bufferIPN2cv3MatERNS_9allocatorIS3_EEE12emplace_backIJS3_EEEvDpOT_
FNL:24,84
FNA:24,781,_ZNSt3__114__split_bufferIPN2cv3MatENS_9allocatorIS3_EEEC1B8ne200100Ev
FNA:24,781,_ZNSt3__114__split_bufferIPN2cv3MatENS_9allocatorIS3_EEEC2B8ne200100Ev
FNL:25,91
FNA:25,12,_ZNSt3__114__split_bufferIPN2cv3MatENS_9allocatorIS3_EEEC1B8ne200100ERKS5_
FNA:25,12,_ZNSt3__114__split_bufferIPN2cv3MatENS_9allocatorIS3_EEEC2B8ne200100ERKS5_
FNF:26
FNH:19
DA:84,2343
DA:86,2343
DA:91,48
DA:92,48
DA:109,9086
DA:110,24
DA:112,1346
DA:115,183204
DA:117,10230
DA:118,10230
DA:121,7776
DA:123,8481
DA:124,8481
DA:131,0
DA:132,0
DA:135,0
DA:137,24
DA:147,0
DA:165,0
DA:166,0
DA:167,0
DA:172,183204
DA:173,183204
DA:174,183204
DA:194,115412
DA:195,57706
DA:196,57706
DA:197,115412
DA:199,115412
DA:235,57691
DA:236,57691
DA:237,150827
DA:238,93136
DA:239,93136
DA:240,57691
DA:278,0
DA:279,0
DA:280,0
DA:285,15
DA:286,15
DA:287,165
DA:288,150
DA:289,150
DA:290,15
DA:301,0
DA:302,0
DA:303,0
DA:307,183204
DA:308,183757
DA:309,553
DA:310,183204
DA:320,729644
DA:321,547233
DA:322,182411
DA:323,0
DA:324,0
DA:325,182411
DA:326,182411
DA:327,182411
DA:328,182411
DA:329,182411
DA:330,182411
DA:331,364822
DA:334,366408
DA:335,183204
DA:336,183204
DA:337,7375
DA:338,366408
DA:428,0
DA:429,0
DA:430,0
DA:431,0
DA:432,0
DA:433,0
DA:434,0
DA:435,0
DA:436,0
DA:437,0
DA:438,0
DA:439,0
DA:440,0
DA:441,0
DA:442,0
DA:443,0
DA:444,0
DA:445,0
DA:446,0
DA:447,0
DA:451,553
DA:452,553
DA:453,0
DA:454,0
DA:455,0
DA:456,0
DA:457,0
DA:458,0
DA:459,0
DA:460,0
DA:461,0
DA:462,0
DA:463,0
DA:464,0
DA:465,0
DA:466,0
DA:467,0
DA:468,553
DA:469,553
DA:470,553
LF:108
LH:58
end_of_record
TN:
SF:/Library/Developer/CommandLineTools/SDKs/MacOSX.sdk/usr/include/c++/v1/__string/char_traits.h
FNL:0,194,196
FNA:0,2031,_ZNSt3__111char_traitsIcE6assignB8ne200100ERcRKc
FNL:1,209,227
FNA:1,0,_ZNSt3__111char_traitsIcE7compareB8ne200100EPKcS3_m
FNL:2,231,232
FNA:2,219626,_ZNSt3__111char_traitsIcE6lengthB8ne200100EPKc
FNL:3,236,240
FNA:3,0,_ZNSt3__111char_traitsIcE4findB8ne200100EPKcmRS2_
FNL:4,248,252
FNA:4,2105,_ZNSt3__111char_traitsIcE4copyB8ne200100EPcPKcm
FNL:5,256,258
FNA:5,0,_ZNSt3__111char_traitsIcE6assignB8ne200100EPcmc
FNL:6,273,273
FNA:6,72772,_ZNSt3__111char_traitsIcE3eofB8ne200100Ev
FNL:7,469,504
FNA:7,0,_ZNSt3__118__search_substringB8ne200100IcNS_11char_traitsIcEEEEPKT_S5_S5_S5_S5_
FNL:8,508,520
FNA:8,0,_ZNSt3__110__str_findB8ne200100IcmNS_11char_traitsIcEELm18446744073709551615EEET0_PKT_S3_S6_S3_S3_
FNF:9
FNH:4
DA:194,2031
DA:195,2031
DA:196,2031
DA:209,0
DA:227,0
DA:231,219626
DA:232,219626
DA:236,0
DA:237,0
DA:238,0
DA:239,0
DA:240,0
DA:248,2105
DA:251,2105
DA:252,2105
DA:256,0
DA:257,0
DA:258,0
DA:273,72772
DA:469,0
DA:473,0
DA:474,0
DA:475,0
DA:477,0
DA:478,0
DA:479,0
DA:482,0
DA:483,0
DA:484,0
DA:486,0
DA:487,0
DA:490,0
DA:491,0
DA:492,0
DA:499,0
DA:500,0
DA:502,0
DA:504,0
DA:508,0
DA:509,0
DA:510,0
DA:512,0
DA:513,0
DA:515,0
DA:517,0
DA:518,0
DA:519,0
DA:520,0
LF:48
LH:9
end_of_record
TN:
SF:/Library/Developer/CommandLineTools/SDKs/MacOSX.sdk/usr/include/c++/v1/__string/constexpr_c_functions.h
FNL:0,130,151
FNA:0,0,_ZNSt3__118__constexpr_memchrB8ne200100IKccEEPT_S3_T0_m
FNL:1,209,229
FNA:1,0,_ZNSt3__119__constexpr_memmoveB8ne200100IN2cv6Point_IfEES3_Li0EEEPT_S5_PT0_NS_15__element_countE
FNA:1,0,_ZNSt3__119__constexpr_memmoveB8ne200100IPN2cv3MatES3_Li0EEEPT_S5_PT0_NS_15__element_countE
FNA:1,2105,_ZNSt3__119__constexpr_memmoveB8ne200100IcKcLi0EEEPT_S3_PT0_NS_15__element_countE
FNA:1,0,_ZNSt3__119__constexpr_memmoveB8ne200100IddLi0EEEPT_S2_PT0_NS_15__element_countE
FNL:2,49,63
FNA:2,219626,_ZNSt3__118__constexpr_strlenB8ne200100IcEEmPKT_
FNF:3
FNH:2
DA:49,219626
DA:63,219626
DA:130,0
DA:148,0
DA:149,0
DA:150,0
DA:151,0
DA:209,2105
DA:210,2105
DA:225,2105
DA:226,2105
DA:227,2105
DA:228,4210
DA:229,2105
LF:14
LH:9
end_of_record
TN:
SF:/Library/Developer/CommandLineTools/SDKs/MacOSX.sdk/usr/include/c++/v1/__thread/this_thread.h
FNL:0,38,53
FNA:0,500,_ZNSt3__111this_thread9sleep_forB8ne200100IxNS_5ratioILl1ELl1000000EEEEEvRKNS_6chrono8durationIT_T0_EE
FNA:0,7,_ZNSt3__111this_thread9sleep_forB8ne200100IxNS_5ratioILl1ELl1000EEEEEvRKNS_6chrono8durationIT_T0_EE
FNF:1
FNH:1
DA:38,507
DA:39,507
DA:43,507
DA:44,507
DA:45,507
DA:46,507
DA:47,507
DA:48,0
DA:49,507
DA:50,0
DA:51,507
DA:52,507
DA:53,507
LF:13
LH:11
end_of_record
TN:
SF:/Library/Developer/CommandLineTools/SDKs/MacOSX.sdk/usr/include/c++/v1/__type_traits/invoke.h
FNL:0,177,179
FNA:0,10340,_ZNSt3__18__invokeB8ne200100IRNS_10__identityEJRKdEEEDTclclsr3stdE7declvalIT_EEspclsr3stdE7declvalIT0_EEEEOS5_DpOS6_
FNA:0,5170,_ZNSt3__18__invokeB8ne200100IRNS_6__lessIvvEEJRKdS5_EEEDTclclsr3stdE7declvalIT_EEspclsr3stdE7declvalIT0_EEEEOS6_DpOS7_
FNF:1
FNH:1
DA:177,15510
DA:179,15510
LF:2
LH:2
end_of_record
TN:
SF:/Library/Developer/CommandLineTools/SDKs/MacOSX.sdk/usr/include/c++/v1/__utility/convert_to_integral.h
FNL:0,28,28
FNA:0,5,_ZNSt3__121__convert_to_integralB8ne200100El
FNL:1,30,31
FNA:1,0,_ZNSt3__121__convert_to_integralB8ne200100Em
FNF:2
FNH:1
DA:28,5
DA:30,0
DA:31,0
LF:3
LH:1
end_of_record
TN:
SF:/Library/Developer/CommandLineTools/SDKs/MacOSX.sdk/usr/include/c++/v1/__utility/exception_guard.h
FNL:0,136,137
FNA:0,5,_ZNSt3__122__make_exception_guardB8ne200100INS_29_AllocatorDestroyRangeReverseINS_9allocatorIN14StabilizerCore16StabilizerParamsEEEPS4_EEEENS_28__exception_guard_exceptionsIT_EES9_
FNA:0,7301,_ZNSt3__122__make_exception_guardB8ne200100INS_29_AllocatorDestroyRangeReverseINS_9allocatorIN2cv3MatEEEPS4_EEEENS_28__exception_guard_exceptionsIT_EES9_
FNA:0,55,_ZNSt3__122__make_exception_guardB8ne200100INS_29_AllocatorDestroyRangeReverseINS_9allocatorINS_12basic_stringIcNS_11char_traitsIcEENS2_IcEEEEEEPS7_EEEENS_28__exception_guard_exceptionsIT_EESC_
FNA:0,5,_ZNSt3__122__make_exception_guardB8ne200100INS_29_AllocatorDestroyRangeReverseINS_9allocatorINS_4pairIiiEEEEPS4_EEEENS_28__exception_guard_exceptionsIT_EES9_
FNA:0,5,_ZNSt3__122__make_exception_guardB8ne200100INS_29_AllocatorDestroyRangeReverseINS_9allocatorINS_6vectorIN2cv3MatENS2_IS5_EEEEEEPS7_EEEENS_28__exception_guard_exceptionsIT_EESC_
FNA:0,5,_ZNSt3__122__make_exception_guardB8ne200100INS_29_AllocatorDestroyRangeReverseINS_9allocatorIP14StabilizerCoreEEPS4_EEEENS_28__exception_guard_exceptionsIT_EES9_
FNA:0,10,_ZNSt3__122__make_exception_guardB8ne200100INS_29_AllocatorDestroyRangeReverseINS_9allocatorIiEEPiEEEENS_28__exception_guard_exceptionsIT_EES7_
FNA:0,5,_ZNSt3__122__make_exception_guardB8ne200100INS_6vectorIN14StabilizerCore16StabilizerParamsENS_9allocatorIS3_EEE16__destroy_vectorEEENS_28__exception_guard_exceptionsIT_EES9_
FNA:0,175,_ZNSt3__122__make_exception_guardB8ne200100INS_6vectorIN2cv3MatENS_9allocatorIS3_EEE16__destroy_vectorEEENS_28__exception_guard_exceptionsIT_EES9_
FNA:0,5,_ZNSt3__122__make_exception_guardB8ne200100INS_6vectorINS1_IN2cv3MatENS_9allocatorIS3_EEEENS4_IS6_EEE16__destroy_vectorEEENS_28__exception_guard_exceptionsIT_EESB_
FNA:0,55,_ZNSt3__122__make_exception_guardB8ne200100INS_6vectorINS_12basic_stringIcNS_11char_traitsIcEENS_9allocatorIcEEEENS5_IS7_EEE16__destroy_vectorEEENS_28__exception_guard_exceptionsIT_EESC_
FNA:0,5,_ZNSt3__122__make_exception_guardB8ne200100INS_6vectorINS_4pairIiiEENS_9allocatorIS3_EEE16__destroy_vectorEEENS_28__exception_guard_exceptionsIT_EES9_
FNA:0,5,_ZNSt3__122__make_exception_guardB8ne200100INS_6vectorIP14StabilizerCoreNS_9allocatorIS3_EEE16__destroy_vectorEEENS_28__exception_guard_exceptionsIT_EES9_
FNA:0,0,_ZNSt3__122__make_exception_guardB8ne200100INS_6vectorIdNS_9allocatorIdEEE16__destroy_vectorEEENS_28__exception_guard_exceptionsIT_EES7_
FNA:0,10,_ZNSt3__122__make_exception_guardB8ne200100INS_6vectorIiNS_9allocatorIiEEE16__destroy_vectorEEENS_28__exception_guard_exceptionsIT_EES7_
FNL:1,68,69
FNA:1,5,_ZNSt3__128__exception_guard_exceptionsINS_29_AllocatorDestroyRangeReverseINS_9allocatorIN14StabilizerCore16StabilizerParamsEEEPS4_EEEC1B8ne200100ES7_
FNA:1,5,_ZNSt3__128__exception_guard_exceptionsINS_29_AllocatorDestroyRangeReverseINS_9allocatorIN14StabilizerCore16StabilizerParamsEEEPS4_EEEC2B8ne200100ES7_
FNA:1,7301,_ZNSt3__128__exception_guard_exceptionsINS_29_AllocatorDestroyRangeReverseINS_9allocatorIN2cv3MatEEEPS4_EEEC1B8ne200100ES7_
FNA:1,7301,_ZNSt3__128__exception_guard_exceptionsINS_29_AllocatorDestroyRangeReverseINS_9allocatorIN2cv3MatEEEPS4_EEEC2B8ne200100ES7_
FNA:1,55,_ZNSt3__128__exception_guard_exceptionsINS_29_AllocatorDestroyRangeReverseINS_9allocatorINS_12basic_stringIcNS_11char_traitsIcEENS2_IcEEEEEEPS7_EEEC1B8ne200100ESA_
FNA:1,55,_ZNSt3__128__exception_guard_exceptionsINS_29_AllocatorDestroyRangeReverseINS_9allocatorINS_12basic_stringIcNS_11char_traitsIcEENS2_IcEEEEEEPS7_EEEC2B8ne200100ESA_
FNA:1,5,_ZNSt3__128__exception_guard_exceptionsINS_29_AllocatorDestroyRangeReverseINS_9allocatorINS_4pairIiiEEEEPS4_EEEC1B8ne200100ES7_
FNA:1,5,_ZNSt3__128__exception_guard_exceptionsINS_29_AllocatorDestroyRangeReverseINS_9allocatorINS_4pairIiiEEEEPS4_EEEC2B8ne200100ES7_
FNA:1,5,_ZNSt3__128__exception_guard_exceptionsINS_29_AllocatorDestroyRangeReverseINS_9allocatorINS_6vectorIN2cv3MatENS2_IS5_EEEEEEPS7_EEEC1B8ne200100ESA_
FNA:1,5,_ZNSt3__128__exception_guard_exceptionsINS_29_AllocatorDestroyRangeReverseINS_9allocatorINS_6vectorIN2cv3MatENS2_IS5_EEEEEEPS7_EEEC2B8ne200100ESA_
FNA:1,5,_ZNSt3__128__exception_guard_exceptionsINS_29_AllocatorDestroyRangeReverseINS_9allocatorIP14StabilizerCoreEEPS4_EEEC1B8ne200100ES7_
FNA:1,5,_ZNSt3__128__exception_guard_exceptionsINS_29_AllocatorDestroyRangeReverseINS_9allocatorIP14StabilizerCoreEEPS4_EEEC2B8ne200100ES7_
FNA:1,10,_ZNSt3__128__exception_guard_exceptionsINS_29_AllocatorDestroyRangeReverseINS_9allocatorIiEEPiEEEC1B8ne200100ES5_
FNA:1,10,_ZNSt3__128__exception_guard_exceptionsINS_29_AllocatorDestroyRangeReverseINS_9allocatorIiEEPiEEEC2B8ne200100ES5_
FNA:1,5,_ZNSt3__128__exception_guard_exceptionsINS_6vectorIN14StabilizerCore16StabilizerParamsENS_9allocatorIS3_EEE16__destroy_vectorEEC1B8ne200100ES7_
FNA:1,5,_ZNSt3__128__exception_guard_exceptionsINS_6vectorIN14StabilizerCore16StabilizerParamsENS_9allocatorIS3_EEE16__destroy_vectorEEC2B8ne200100ES7_
FNA:1,175,_ZNSt3__128__exception_guard_exceptionsINS_6vectorIN2cv3MatENS_9allocatorIS3_EEE16__destroy_vectorEEC1B8ne200100ES7_
FNA:1,175,_ZNSt3__128__exception_guard_exceptionsINS_6vectorIN2cv3MatENS_9allocatorIS3_EEE16__destroy_vectorEEC2B8ne200100ES7_
FNA:1,5,_ZNSt3__128__exception_guard_exceptionsINS_6vectorINS1_IN2cv3MatENS_9allocatorIS3_EEEENS4_IS6_EEE16__destroy_vectorEEC1B8ne200100ES9_
FNA:1,5,_ZNSt3__128__exception_guard_exceptionsINS_6vectorINS1_IN2cv3MatENS_9allocatorIS3_EEEENS4_IS6_EEE16__destroy_vectorEEC2B8ne200100ES9_
FNA:1,55,_ZNSt3__128__exception_guard_exceptionsINS_6vectorINS_12basic_stringIcNS_11char_traitsIcEENS_9allocatorIcEEEENS5_IS7_EEE16__destroy_vectorEEC1B8ne200100ESA_
FNA:1,55,_ZNSt3__128__exception_guard_exceptionsINS_6vectorINS_12basic_stringIcNS_11char_traitsIcEENS_9allocatorIcEEEENS5_IS7_EEE16__destroy_vectorEEC2B8ne200100ESA_
FNA:1,5,_ZNSt3__128__exception_guard_exceptionsINS_6vectorINS_4pairIiiEENS_9allocatorIS3_EEE16__destroy_vectorEEC1B8ne200100ES7_
FNA:1,5,_ZNSt3__128__exception_guard_exceptionsINS_6vectorINS_4pairIiiEENS_9allocatorIS3_EEE16__destroy_vectorEEC2B8ne200100ES7_
FNA:1,5,_ZNSt3__128__exception_guard_exceptionsINS_6vectorIP14StabilizerCoreNS_9allocatorIS3_EEE16__destroy_vectorEEC1B8ne200100ES7_
FNA:1,5,_ZNSt3__128__exception_guard_exceptionsINS_6vectorIP14StabilizerCoreNS_9allocatorIS3_EEE16__destroy_vectorEEC2B8ne200100ES7_
FNA:1,0,_ZNSt3__128__exception_guard_exceptionsINS_6vectorIdNS_9allocatorIdEEE16__destroy_vectorEEC1B8ne200100ES5_
FNA:1,0,_ZNSt3__128__exception_guard_exceptionsINS_6vectorIdNS_9allocatorIdEEE16__destroy_vectorEEC2B8ne200100ES5_
FNA:1,10,_ZNSt3__128__exception_guard_exceptionsINS_6vectorIiNS_9allocatorIiEEE16__destroy_vectorEEC1B8ne200100ES5_
FNA:1,10,_ZNSt3__128__exception_guard_exceptionsINS_6vectorIiNS_9allocatorIiEEE16__destroy_vectorEEC2B8ne200100ES5_
FNL:2,82,82
FNA:2,5,_ZNSt3__128__exception_guard_exceptionsINS_29_AllocatorDestroyRangeReverseINS_9allocatorIN14StabilizerCore16StabilizerParamsEEEPS4_EEE10__completeB8ne200100Ev
FNA:2,7301,_ZNSt3__128__exception_guard_exceptionsINS_29_AllocatorDestroyRangeReverseINS_9allocatorIN2cv3MatEEEPS4_EEE10__completeB8ne200100Ev
FNA:2,55,_ZNSt3__128__exception_guard_exceptionsINS_29_AllocatorDestroyRangeReverseINS_9allocatorINS_12basic_stringIcNS_11char_traitsIcEENS2_IcEEEEEEPS7_EEE10__completeB8ne200100Ev
FNA:2,5,_ZNSt3__128__exception_guard_exceptionsINS_29_AllocatorDestroyRangeReverseINS_9allocatorINS_4pairIiiEEEEPS4_EEE10__completeB8ne200100Ev
FNA:2,5,_ZNSt3__128__exception_guard_exceptionsINS_29_AllocatorDestroyRangeReverseINS_9allocatorINS_6vectorIN2cv3MatENS2_IS5_EEEEEEPS7_EEE10__completeB8ne200100Ev
FNA:2,5,_ZNSt3__128__exception_guard_exceptionsINS_29_AllocatorDestroyRangeReverseINS_9allocatorIP14StabilizerCoreEEPS4_EEE10__completeB8ne200100Ev
FNA:2,10,_ZNSt3__128__exception_guard_exceptionsINS_29_AllocatorDestroyRangeReverseINS_9allocatorIiEEPiEEE10__completeB8ne200100Ev
FNA:2,5,_ZNSt3__128__exception_guard_exceptionsINS_6vectorIN14StabilizerCore16StabilizerParamsENS_9allocatorIS3_EEE16__destroy_vectorEE10__completeB8ne200100Ev
FNA:2,175,_ZNSt3__128__exception_guard_exceptionsINS_6vectorIN2cv3MatENS_9allocatorIS3_EEE16__destroy_vectorEE10__completeB8ne200100Ev
FNA:2,5,_ZNSt3__128__exception_guard_exceptionsINS_6vectorINS1_IN2cv3MatENS_9allocatorIS3_EEEENS4_IS6_EEE16__destroy_vectorEE10__completeB8ne200100Ev
FNA:2,55,_ZNSt3__128__exception_guard_exceptionsINS_6vectorINS_12basic_stringIcNS_11char_traitsIcEENS_9allocatorIcEEEENS5_IS7_EEE16__destroy_vectorEE10__completeB8ne200100Ev
FNA:2,5,_ZNSt3__128__exception_guard_exceptionsINS_6vectorINS_4pairIiiEENS_9allocatorIS3_EEE16__destroy_vectorEE10__completeB8ne200100Ev
FNA:2,5,_ZNSt3__128__exception_guard_exceptionsINS_6vectorIP14StabilizerCoreNS_9allocatorIS3_EEE16__destroy_vectorEE10__completeB8ne200100Ev
FNA:2,0,_ZNSt3__128__exception_guard_exceptionsINS_6vectorIdNS_9allocatorIdEEE16__destroy_vectorEE10__completeB8ne200100Ev
FNA:2,10,_ZNSt3__128__exception_guard_exceptionsINS_6vectorIiNS_9allocatorIiEEE16__destroy_vectorEE10__completeB8ne200100Ev
FNL:3,84,87
FNA:3,5,_ZNSt3__128__exception_guard_exceptionsINS_29_AllocatorDestroyRangeReverseINS_9allocatorIN14StabilizerCore16StabilizerParamsEEEPS4_EEED1B8ne200100Ev
FNA:3,5,_ZNSt3__128__exception_guard_exceptionsINS_29_AllocatorDestroyRangeReverseINS_9allocatorIN14StabilizerCore16StabilizerParamsEEEPS4_EEED2B8ne200100Ev
FNA:3,7301,_ZNSt3__128__exception_guard_exceptionsINS_29_AllocatorDestroyRangeReverseINS_9allocatorIN2cv3MatEEEPS4_EEED1B8ne200100Ev
FNA:3,7301,_ZNSt3__128__exception_guard_exceptionsINS_29_AllocatorDestroyRangeReverseINS_9allocatorIN2cv3MatEEEPS4_EEED2B8ne200100Ev
FNA:3,55,_ZNSt3__128__exception_guard_exceptionsINS_29_AllocatorDestroyRangeReverseINS_9allocatorINS_12basic_stringIcNS_11char_traitsIcEENS2_IcEEEEEEPS7_EEED1B8ne200100Ev
FNA:3,55,_ZNSt3__128__exception_guard_exceptionsINS_29_AllocatorDestroyRangeReverseINS_9allocatorINS_12basic_stringIcNS_11char_traitsIcEENS2_IcEEEEEEPS7_EEED2B8ne200100Ev
FNA:3,5,_ZNSt3__128__exception_guard_exceptionsINS_29_AllocatorDestroyRangeReverseINS_9allocatorINS_4pairIiiEEEEPS4_EEED1B8ne200100Ev
FNA:3,5,_ZNSt3__128__exception_guard_exceptionsINS_29_AllocatorDestroyRangeReverseINS_9allocatorINS_4pairIiiEEEEPS4_EEED2B8ne200100Ev
FNA:3,5,_ZNSt3__128__exception_guard_exceptionsINS_29_AllocatorDestroyRangeReverseINS_9allocatorINS_6vectorIN2cv3MatENS2_IS5_EEEEEEPS7_EEED1B8ne200100Ev
FNA:3,5,_ZNSt3__128__exception_guard_exceptionsINS_29_AllocatorDestroyRangeReverseINS_9allocatorINS_6vectorIN2cv3MatENS2_IS5_EEEEEEPS7_EEED2B8ne200100Ev
FNA:3,5,_ZNSt3__128__exception_guard_exceptionsINS_29_AllocatorDestroyRangeReverseINS_9allocatorIP14StabilizerCoreEEPS4_EEED1B8ne200100Ev
FNA:3,5,_ZNSt3__128__exception_guard_exceptionsINS_29_AllocatorDestroyRangeReverseINS_9allocatorIP14StabilizerCoreEEPS4_EEED2B8ne200100Ev
FNA:3,10,_ZNSt3__128__exception_guard_exceptionsINS_29_AllocatorDestroyRangeReverseINS_9allocatorIiEEPiEEED1B8ne200100Ev
FNA:3,10,_ZNSt3__128__exception_guard_exceptionsINS_29_AllocatorDestroyRangeReverseINS_9allocatorIiEEPiEEED2B8ne200100Ev
FNA:3,5,_ZNSt3__128__exception_guard_exceptionsINS_6vectorIN14StabilizerCore16StabilizerParamsENS_9allocatorIS3_EEE16__destroy_vectorEED1B8ne200100Ev
FNA:3,5,_ZNSt3__128__exception_guard_exceptionsINS_6vectorIN14StabilizerCore16StabilizerParamsENS_9allocatorIS3_EEE16__destroy_vectorEED2B8ne200100Ev
FNA:3,175,_ZNSt3__128__exception_guard_exceptionsINS_6vectorIN2cv3MatENS_9allocatorIS3_EEE16__destroy_vectorEED1B8ne200100Ev
FNA:3,175,_ZNSt3__128__exception_guard_exceptionsINS_6vectorIN2cv3MatENS_9allocatorIS3_EEE16__destroy_vectorEED2B8ne200100Ev
FNA:3,5,_ZNSt3__128__exception_guard_exceptionsINS_6vectorINS1_IN2cv3MatENS_9allocatorIS3_EEEENS4_IS6_EEE16__destroy_vectorEED1B8ne200100Ev
FNA:3,5,_ZNSt3__128__exception_guard_exceptionsINS_6vectorINS1_IN2cv3MatENS_9allocatorIS3_EEEENS4_IS6_EEE16__destroy_vectorEED2B8ne200100Ev
FNA:3,55,_ZNSt3__128__exception_guard_exceptionsINS_6vectorINS_12basic_stringIcNS_11char_traitsIcEENS_9allocatorIcEEEENS5_IS7_EEE16__destroy_vectorEED1B8ne200100Ev
FNA:3,55,_ZNSt3__128__exception_guard_exceptionsINS_6vectorINS_12basic_stringIcNS_11char_traitsIcEENS_9allocatorIcEEEENS5_IS7_EEE16__destroy_vectorEED2B8ne200100Ev
FNA:3,5,_ZNSt3__128__exception_guard_exceptionsINS_6vectorINS_4pairIiiEENS_9allocatorIS3_EEE16__destroy_vectorEED1B8ne200100Ev
FNA:3,5,_ZNSt3__128__exception_guard_exceptionsINS_6vectorINS_4pairIiiEENS_9allocatorIS3_EEE16__destroy_vectorEED2B8ne200100Ev
FNA:3,5,_ZNSt3__128__exception_guard_exceptionsINS_6vectorIP14StabilizerCoreNS_9allocatorIS3_EEE16__destroy_vectorEED1B8ne200100Ev
FNA:3,5,_ZNSt3__128__exception_guard_exceptionsINS_6vectorIP14StabilizerCoreNS_9allocatorIS3_EEE16__destroy_vectorEED2B8ne200100Ev
FNA:3,0,_ZNSt3__128__exception_guard_exceptionsINS_6vectorIdNS_9allocatorIdEEE16__destroy_vectorEED1B8ne200100Ev
FNA:3,0,_ZNSt3__128__exception_guard_exceptionsINS_6vectorIdNS_9allocatorIdEEE16__destroy_vectorEED2B8ne200100Ev
FNA:3,10,_ZNSt3__128__exception_guard_exceptionsINS_6vectorIiNS_9allocatorIiEEE16__destroy_vectorEED1B8ne200100Ev
FNA:3,10,_ZNSt3__128__exception_guard_exceptionsINS_6vectorIiNS_9allocatorIiEEE16__destroy_vectorEED2B8ne200100Ev
FNF:4
FNH:4
DA:68,15292
DA:69,15292
DA:82,7646
DA:84,15292
DA:85,7646
DA:86,0
DA:87,15292
DA:136,7646
DA:137,7646
LF:9
LH:8
end_of_record
TN:
SF:/Library/Developer/CommandLineTools/SDKs/MacOSX.sdk/usr/include/c++/v1/__utility/pair.h
FNL:0,144,146
FNA:0,10,_ZNSt3__14pairIiiEC1B8ne200100ILb1ELi0EEERKiS4_
FNA:0,10,_ZNSt3__14pairIiiEC2B8ne200100ILb1ELi0EEERKiS4_
FNL:1,158,161
FNA:1,0,_ZNSt3__14pairINS_11__wrap_iterIPN2cv3MatEEES4_EC1B8ne200100IS5_S4_Li0EEEOT_OT0_
FNA:1,0,_ZNSt3__14pairINS_11__wrap_iterIPN2cv3MatEEES4_EC2B8ne200100IS5_S4_Li0EEEOT_OT0_
FNA:1,5,_ZNSt3__14pairIPKN14StabilizerCore16StabilizerParamsES4_EC1B8ne200100IS4_S4_Li0EEEOT_OT0_
FNA:1,5,_ZNSt3__14pairIPKN14StabilizerCore16StabilizerParamsES4_EC2B8ne200100IS4_S4_Li0EEEOT_OT0_
FNA:1,5,_ZNSt3__14pairIPKNS0_IiiEES3_EC1B8ne200100IS3_S3_Li0EEEOT_OT0_
FNA:1,5,_ZNSt3__14pairIPKNS0_IiiEES3_EC2B8ne200100IS3_S3_Li0EEEOT_OT0_
FNA:1,55,_ZNSt3__14pairIPKNS_12basic_stringIcNS_11char_traitsIcEENS_9allocatorIcEEEES8_EC1B8ne200100IS8_S8_Li0EEEOT_OT0_
FNA:1,55,_ZNSt3__14pairIPKNS_12basic_stringIcNS_11char_traitsIcEENS_9allocatorIcEEEES8_EC2B8ne200100IS8_S8_Li0EEEOT_OT0_
FNA:1,5,_ZNSt3__14pairIPKNS_6vectorIN2cv3MatENS_9allocatorIS3_EEEES8_EC1B8ne200100IS8_S8_Li0EEEOT_OT0_
FNA:1,5,_ZNSt3__14pairIPKNS_6vectorIN2cv3MatENS_9allocatorIS3_EEEES8_EC2B8ne200100IS8_S8_Li0EEEOT_OT0_
FNA:1,5,_ZNSt3__14pairIPKP14StabilizerCoreS4_EC1B8ne200100IS4_S4_Li0EEEOT_OT0_
FNA:1,5,_ZNSt3__14pairIPKP14StabilizerCoreS4_EC2B8ne200100IS4_S4_Li0EEEOT_OT0_
FNA:1,10,_ZNSt3__14pairIPKiS2_EC1B8ne200100IS2_S2_Li0EEEOT_OT0_
FNA:1,10,_ZNSt3__14pairIPKiS2_EC2B8ne200100IS2_S2_Li0EEEOT_OT0_
FNA:1,180,_ZNSt3__14pairIPN2cv3MatES3_EC1B8ne200100IS3_S3_Li0EEEOT_OT0_
FNA:1,180,_ZNSt3__14pairIPN2cv3MatES3_EC2B8ne200100IS3_S3_Li0EEEOT_OT0_
FNA:1,0,_ZNSt3__14pairIPN2cv6Point_IfEES4_EC1B8ne200100IRS4_S4_Li0EEEOT_OT0_
FNA:1,0,_ZNSt3__14pairIPN2cv6Point_IfEES4_EC1B8ne200100IS4_S4_Li0EEEOT_OT0_
FNA:1,0,_ZNSt3__14pairIPN2cv6Point_IfEES4_EC2B8ne200100IRS4_S4_Li0EEEOT_OT0_
FNA:1,0,_ZNSt3__14pairIPN2cv6Point_IfEES4_EC2B8ne200100IS4_S4_Li0EEEOT_OT0_
FNA:1,0,_ZNSt3__14pairIPPN2cv3MatES4_EC1B8ne200100IRS4_S4_Li0EEEOT_OT0_
FNA:1,0,_ZNSt3__14pairIPPN2cv3MatES4_EC1B8ne200100IRS4_S7_Li0EEEOT_OT0_
FNA:1,0,_ZNSt3__14pairIPPN2cv3MatES4_EC1B8ne200100IS4_S4_Li0EEEOT_OT0_
FNA:1,0,_ZNSt3__14pairIPPN2cv3MatES4_EC2B8ne200100IRS4_S4_Li0EEEOT_OT0_
FNA:1,0,_ZNSt3__14pairIPPN2cv3MatES4_EC2B8ne200100IRS4_S7_Li0EEEOT_OT0_
FNA:1,0,_ZNSt3__14pairIPPN2cv3MatES4_EC2B8ne200100IS4_S4_Li0EEEOT_OT0_
FNA:1,0,_ZNSt3__14pairIPdS1_EC1B8ne200100IRS1_S1_Li0EEEOT_OT0_
FNA:1,0,_ZNSt3__14pairIPdS1_EC1B8ne200100IS1_S1_Li0EEEOT_OT0_
FNA:1,0,_ZNSt3__14pairIPdS1_EC2B8ne200100IRS1_S1_Li0EEEOT_OT0_
FNA:1,0,_ZNSt3__14pairIPdS1_EC2B8ne200100IS1_S1_Li0EEEOT_OT0_
FNA:1,10,_ZNSt3__14pairIiiEC1B8ne200100IiiLi0EEEOT_OT0_
FNA:1,10,_ZNSt3__14pairIiiEC2B8ne200100IiiLi0EEEOT_OT0_
FNL:2,536,537
FNA:2,0,_ZNSt3__19make_pairB8ne200100INS_11__wrap_iterIPN2cv3MatEEES4_EENS_4pairINS_18__unwrap_referenceIu7__decayIT_EE4typeENS7_Iu7__decayIT0_EE4typeEEEOS8_OSC_
FNA:2,5,_ZNSt3__19make_pairB8ne200100IPKN14StabilizerCore16StabilizerParamsES4_EENS_4pairINS_18__unwrap_referenceIu7__decayIT_EE4typeENS6_Iu7__decayIT0_EE4typeEEEOS7_OSB_
FNA:2,55,_ZNSt3__19make_pairB8ne200100IPKNS_12basic_stringIcNS_11char_traitsIcEENS_9allocatorIcEEEES8_EENS_4pairINS_18__unwrap_referenceIu7__decayIT_EE4typeENSA_Iu7__decayIT0_EE4typeEEEOSB_OSF_
FNA:2,5,_ZNSt3__19make_pairB8ne200100IPKNS_4pairIiiEES4_EENS1_INS_18__unwrap_referenceIu7__decayIT_EE4typeENS5_Iu7__decayIT0_EE4typeEEEOS6_OSA_
FNA:2,5,_ZNSt3__19make_pairB8ne200100IPKNS_6vectorIN2cv3MatENS_9allocatorIS3_EEEES8_EENS_4pairINS_18__unwrap_referenceIu7__decayIT_EE4typeENSA_Iu7__decayIT0_EE4typeEEEOSB_OSF_
FNA:2,5,_ZNSt3__19make_pairB8ne200100IPKP14StabilizerCoreS4_EENS_4pairINS_18__unwrap_referenceIu7__decayIT_EE4typeENS6_Iu7__decayIT0_EE4typeEEEOS7_OSB_
FNA:2,10,_ZNSt3__19make_pairB8ne200100IPKiS2_EENS_4pairINS_18__unwrap_referenceIu7__decayIT_EE4typeENS4_Iu7__decayIT0_EE4typeEEEOS5_OS9_
FNA:2,180,_ZNSt3__19make_pairB8ne200100IPN2cv3MatES3_EENS_4pairINS_18__unwrap_referenceIu7__decayIT_EE4typeENS5_Iu7__decayIT0_EE4typeEEEOS6_OSA_
FNA:2,0,_ZNSt3__19make_pairB8ne200100IPN2cv6Point_IfEES4_EENS_4pairINS_18__unwrap_referenceIu7__decayIT_EE4typeENS6_Iu7__decayIT0_EE4typeEEEOS7_OSB_
FNA:2,0,_ZNSt3__19make_pairB8ne200100IPPN2cv3MatES4_EENS_4pairINS_18__unwrap_referenceIu7__decayIT_EE4typeENS6_Iu7__decayIT0_EE4typeEEEOS7_OSB_
FNA:2,0,_ZNSt3__19make_pairB8ne200100IPdS1_EENS_4pairINS_18__unwrap_referenceIu7__decayIT_EE4typeENS3_Iu7__decayIT0_EE4typeEEEOS4_OS8_
FNA:2,0,_ZNSt3__19make_pairB8ne200100IRPN2cv6Point_IfEES4_EENS_4pairINS_18__unwrap_referenceIu7__decayIT_EE4typeENS7_Iu7__decayIT0_EE4typeEEEOS8_OSC_
FNA:2,0,_ZNSt3__19make_pairB8ne200100IRPPN2cv3MatES4_EENS_4pairINS_18__unwrap_referenceIu7__decayIT_EE4typeENS7_Iu7__decayIT0_EE4typeEEEOS8_OSC_
FNA:2,0,_ZNSt3__19make_pairB8ne200100IRPPN2cv3MatES5_EENS_4pairINS_18__unwrap_referenceIu7__decayIT_EE4typeENS7_Iu7__decayIT0_EE4typeEEEOS8_OSC_
FNA:2,0,_ZNSt3__19make_pairB8ne200100IRPdS1_EENS_4pairINS_18__unwrap_referenceIu7__decayIT_EE4typeENS4_Iu7__decayIT0_EE4typeEEEOS5_OS9_
FNL:3,569,570
FNA:3,20,_ZNSt3__110__get_pairILm0EE3getB8ne200100IiiEERKT_RKNS_4pairIS3_T0_EE
FNL:4,592,593
FNA:4,20,_ZNSt3__110__get_pairILm1EE3getB8ne200100IiiEERKT0_RKNS_4pairIT_S3_EE
FNL:5,615,616
FNA:5,20,_ZNSt3__13getB8ne200100ILm0EiiEERKNS_13tuple_elementIXT_ENS_4pairIT0_T1_EEE4typeERKS5_
FNA:5,20,_ZNSt3__13getB8ne200100ILm1EiiEERKNS_13tuple_elementIXT_ENS_4pairIT0_T1_EEE4typeERKS5_
FNF:6
FNH:6
DA:144,20
DA:146,20
DA:158,550
DA:160,550
DA:161,550
DA:536,265
DA:537,265
DA:569,20
DA:570,20
DA:592,20
DA:593,20
DA:615,40
DA:616,40
LF:13
LH:13
end_of_record
TN:
SF:/Library/Developer/CommandLineTools/SDKs/MacOSX.sdk/usr/include/c++/v1/__utility/swap.h
FNL:0,42,47
FNA:0,21318,_ZNSt3__14swapB8ne200100IPN2cv3MatEEENS_9enable_ifIXaasr21is_move_constructibleIT_EE5valuesr18is_move_assignableIS5_EE5valueEvE4typeERS5_S8_
FNA:0,175200,_ZNSt3__14swapB8ne200100IPN2cv6Point_IfEEEENS_9enable_ifIXaasr21is_move_constructibleIT_EE5valuesr18is_move_assignableIS6_EE5valueEvE4typeERS6_S9_
FNA:0,495,_ZNSt3__14swapB8ne200100IPNS_10unique_ptrI14StabilizerCoreNS_14default_deleteIS2_EEEEEENS_9enable_ifIXaasr21is_move_constructibleIT_EE5valuesr18is_move_assignableIS8_EE5valueEvE4typeERS8_SB_
FNA:0,330,_ZNSt3__14swapB8ne200100IPNS_6vectorIN2cv3MatENS_9allocatorIS3_EEEEEENS_9enable_ifIXaasr21is_move_constructibleIT_EE5valuesr18is_move_assignableIS9_EE5valueEvE4typeERS9_SC_
FNA:0,330,_ZNSt3__14swapB8ne200100IPP14StabilizerCoreEENS_9enable_ifIXaasr21is_move_constructibleIT_EE5valuesr18is_move_assignableIS5_EE5valueEvE4typeERS5_S8_
FNA:0,2212,_ZNSt3__14swapB8ne200100IPPN2cv3MatEEENS_9enable_ifIXaasr21is_move_constructibleIT_EE5valuesr18is_move_assignableIS6_EE5valueEvE4typeERS6_S9_
FNA:0,1755,_ZNSt3__14swapB8ne200100IPdEENS_9enable_ifIXaasr21is_move_constructibleIT_EE5valuesr18is_move_assignableIS3_EE5valueEvE4typeERS3_S6_
FNA:0,173073,_ZNSt3__14swapB8ne200100IPfEENS_9enable_ifIXaasr21is_move_constructibleIT_EE5valuesr18is_move_assignableIS3_EE5valueEvE4typeERS3_S6_
FNA:0,173073,_ZNSt3__14swapB8ne200100IPhEENS_9enable_ifIXaasr21is_move_constructibleIT_EE5valuesr18is_move_assignableIS3_EE5valueEvE4typeERS3_S6_
FNA:0,0,_ZNSt3__14swapB8ne200100IfEENS_9enable_ifIXaasr21is_move_constructibleIT_EE5valuesr18is_move_assignableIS2_EE5valueEvE4typeERS2_S5_
FNF:1
FNH:1
DA:42,547786
DA:44,547786
DA:45,547786
DA:46,547786
DA:47,547786
LF:5
LH:5
end_of_record
TN:
SF:/Library/Developer/CommandLineTools/SDKs/MacOSX.sdk/usr/include/c++/v1/__vector/vector.h
FNL:0,1016,1021
FNA:0,0,_ZNSt3__16vectorIN2cv6Point_IfEENS_9allocatorIS3_EEEaSB8ne200100ERKS6_
FNL:1,1042,1063
FNA:1,0,_ZNSt3__16vectorIN2cv6Point_IfEENS_9allocatorIS3_EEE18__assign_with_sizeB8ne200100IPS3_S8_EEvT_T0_l
FNL:2,1082,1089
FNA:2,11907,_ZNSt3__16vectorIN2cv6Point_IfEENS_9allocatorIS3_EEE7reserveEm
FNA:2,57691,_ZNSt3__16vectorIfNS_9allocatorIfEEE7reserveEm
FNA:2,57691,_ZNSt3__16vectorIhNS_9allocatorIhEEE7reserveEm
FNL:3,1113,1120
FNA:3,77,_ZNSt3__16vectorIN2cv3MatENS_9allocatorIS2_EEE24__emplace_back_slow_pathIJRKS2_EEEPS2_DpOT_
FNA:3,7014,_ZNSt3__16vectorIN2cv3MatENS_9allocatorIS2_EEE24__emplace_back_slow_pathIJS2_EEEPS2_DpOT_
FNA:3,110,_ZNSt3__16vectorINS0_IN2cv3MatENS_9allocatorIS2_EEEENS3_IS5_EEE24__emplace_back_slow_pathIJRKS5_EEEPS5_DpOT_
FNA:3,165,_ZNSt3__16vectorINS_10unique_ptrI14StabilizerCoreNS_14default_deleteIS2_EEEENS_9allocatorIS5_EEE24__emplace_back_slow_pathIJS5_EEEPS5_DpOT_
FNA:3,110,_ZNSt3__16vectorIP14StabilizerCoreNS_9allocatorIS2_EEE24__emplace_back_slow_pathIJS2_EEEPS2_DpOT_
FNA:3,585,_ZNSt3__16vectorIdNS_9allocatorIdEEE24__emplace_back_slow_pathIJdEEEPdDpOT_
FNL:4,1130,1142
FNA:4,7000,_ZNSt3__16vectorIN2cv3MatENS_9allocatorIS2_EEE12emplace_backIJRKS2_EEERS2_DpOT_
FNA:4,59725,_ZNSt3__16vectorIN2cv3MatENS_9allocatorIS2_EEE12emplace_backIJS2_EEERS2_DpOT_
FNA:4,155,_ZNSt3__16vectorINS0_IN2cv3MatENS_9allocatorIS2_EEEENS3_IS5_EEE12emplace_backIJRKS5_EEERS5_DpOT_
FNA:4,250,_ZNSt3__16vectorINS_10unique_ptrI14StabilizerCoreNS_14default_deleteIS2_EEEENS_9allocatorIS5_EEE12emplace_backIJS5_EEERS5_DpOT_
FNA:4,185,_ZNSt3__16vectorIP14StabilizerCoreNS_9allocatorIS2_EEE12emplace_backIJS2_EEERS2_DpOT_
FNA:4,5250,_ZNSt3__16vectorIdNS_9allocatorIdEEE12emplace_backIJdEEERdDpOT_
FNL:5,1168,1179
FNA:5,0,_ZNSt3__16vectorIN2cv3MatENS_9allocatorIS2_EEE12__move_rangeEPS2_S6_S6_
FNL:6,1309,1349
FNA:6,20,_ZNSt3__16vectorIN2cv3MatENS_9allocatorIS2_EEE18__insert_with_sizeB8ne200100INS_11__wrap_iterIPS2_EES9_EES9_NS7_IPKS2_EET_T0_l
FNL:7,133,134
FNA:7,1230,_ZNSt3__16vectorIN2cv3MatENS_9allocatorIS2_EEEC1B8ne200100Ev
FNA:7,1230,_ZNSt3__16vectorIN2cv3MatENS_9allocatorIS2_EEEC2B8ne200100Ev
FNA:7,58637,_ZNSt3__16vectorIN2cv6Point_IfEENS_9allocatorIS3_EEEC1B8ne200100Ev
FNA:7,58637,_ZNSt3__16vectorIN2cv6Point_IfEENS_9allocatorIS3_EEEC2B8ne200100Ev
FNA:7,35,_ZNSt3__16vectorIN2cv6Point_IiEENS_9allocatorIS3_EEEC1B8ne200100Ev
FNA:7,35,_ZNSt3__16vectorIN2cv6Point_IiEENS_9allocatorIS3_EEEC2B8ne200100Ev
FNA:7,30,_ZNSt3__16vectorINS0_IN2cv3MatENS_9allocatorIS2_EEEENS3_IS5_EEEC1B8ne200100Ev
FNA:7,30,_ZNSt3__16vectorINS0_IN2cv3MatENS_9allocatorIS2_EEEENS3_IS5_EEEC2B8ne200100Ev
FNA:7,42,_ZNSt3__16vectorINS_10unique_ptrI14StabilizerCoreNS_14default_deleteIS2_EEEENS_9allocatorIS5_EEEC1B8ne200100Ev
FNA:7,42,_ZNSt3__16vectorINS_10unique_ptrI14StabilizerCoreNS_14default_deleteIS2_EEEENS_9allocatorIS5_EEEC2B8ne200100Ev
FNA:7,30,_ZNSt3__16vectorIP14StabilizerCoreNS_9allocatorIS2_EEEC1B8ne200100Ev
FNA:7,30,_ZNSt3__16vectorIP14StabilizerCoreNS_9allocatorIS2_EEEC2B8ne200100Ev
FNA:7,80,_ZNSt3__16vectorIdNS_9allocatorIdEEEC1B8ne200100Ev
FNA:7,80,_ZNSt3__16vectorIdNS_9allocatorIdEEEC2B8ne200100Ev
FNA:7,57691,_ZNSt3__16vectorIfNS_9allocatorIfEEEC1B8ne200100Ev
FNA:7,57691,_ZNSt3__16vectorIfNS_9allocatorIfEEEC2B8ne200100Ev
FNA:7,57691,_ZNSt3__16vectorIhNS_9allocatorIhEEEC1B8ne200100Ev
FNA:7,57691,_ZNSt3__16vectorIhNS_9allocatorIhEEEC2B8ne200100Ev
FNL:8,1352,1358
FNA:8,230834,_ZNSt3__16vectorIN2cv6Point_IfEENS_9allocatorIS3_EEE6resizeEm
FNL:9,209,212
FNA:9,0,_ZNSt3__16vectorIdNS_9allocatorIdEEEC1B8ne200100INS_11__wrap_iterIPdEELi0EEET_S8_
FNA:9,0,_ZNSt3__16vectorIdNS_9allocatorIdEEEC2B8ne200100INS_11__wrap_iterIPdEELi0EEET_S8_
FNL:10,244,244
FNA:10,10,_ZNSt3__16vectorIN14StabilizerCore16StabilizerParamsENS_9allocatorIS2_EEE16__destroy_vectorC1B8ne200100ERS5_
FNA:10,10,_ZNSt3__16vectorIN14StabilizerCore16StabilizerParamsENS_9allocatorIS2_EEE16__destroy_vectorC2B8ne200100ERS5_
FNA:10,1580,_ZNSt3__16vectorIN2cv3MatENS_9allocatorIS2_EEE16__destroy_vectorC1B8ne200100ERS5_
FNA:10,1580,_ZNSt3__16vectorIN2cv3MatENS_9allocatorIS2_EEE16__destroy_vectorC2B8ne200100ERS5_
FNA:10,58637,_ZNSt3__16vectorIN2cv6Point_IfEENS_9allocatorIS3_EEE16__destroy_vectorC1B8ne200100ERS6_
FNA:10,58637,_ZNSt3__16vectorIN2cv6Point_IfEENS_9allocatorIS3_EEE16__destroy_vectorC2B8ne200100ERS6_
FNA:10,35,_ZNSt3__16vectorIN2cv6Point_IiEENS_9allocatorIS3_EEE16__destroy_vectorC1B8ne200100ERS6_
FNA:10,35,_ZNSt3__16vectorIN2cv6Point_IiEENS_9allocatorIS3_EEE16__destroy_vectorC2B8ne200100ERS6_
FNA:10,40,_ZNSt3__16vectorINS0_IN2cv3MatENS_9allocatorIS2_EEEENS3_IS5_EEE16__destroy_vectorC1B8ne200100ERS7_
FNA:10,40,_ZNSt3__16vectorINS0_IN2cv3MatENS_9allocatorIS2_EEEENS3_IS5_EEE16__destroy_vectorC2B8ne200100ERS7_
FNA:10,42,_ZNSt3__16vectorINS_10unique_ptrI14StabilizerCoreNS_14default_deleteIS2_EEEENS_9allocatorIS5_EEE16__destroy_vectorC1B8ne200100ERS8_
FNA:10,42,_ZNSt3__16vectorINS_10unique_ptrI14StabilizerCoreNS_14default_deleteIS2_EEEENS_9allocatorIS5_EEE16__destroy_vectorC2B8ne200100ERS8_
FNA:10,110,_ZNSt3__16vectorINS_12basic_stringIcNS_11char_traitsIcEENS_9allocatorIcEEEENS4_IS6_EEE16__destroy_vectorC1B8ne200100ERS8_
FNA:10,110,_ZNSt3__16vectorINS_12basic_stringIcNS_11char_traitsIcEENS_9allocatorIcEEEENS4_IS6_EEE16__destroy_vectorC2B8ne200100ERS8_
FNA:10,10,_ZNSt3__16vectorINS_4pairIiiEENS_9allocatorIS2_EEE16__destroy_vectorC1B8ne200100ERS5_
FNA:10,10,_ZNSt3__16vectorINS_4pairIiiEENS_9allocatorIS2_EEE16__destroy_vectorC2B8ne200100ERS5_
FNA:10,40,_ZNSt3__16vectorIP14StabilizerCoreNS_9allocatorIS2_EEE16__destroy_vectorC1B8ne200100ERS5_
FNA:10,40,_ZNSt3__16vectorIP14StabilizerCoreNS_9allocatorIS2_EEE16__destroy_vectorC2B8ne200100ERS5_
FNA:10,160,_ZNSt3__16vectorIdNS_9allocatorIdEEE16__destroy_vectorC1B8ne200100ERS3_
FNA:10,160,_ZNSt3__16vectorIdNS_9allocatorIdEEE16__destroy_vectorC2B8ne200100ERS3_
FNA:10,57691,_ZNSt3__16vectorIfNS_9allocatorIfEEE16__destroy_vectorC1B8ne200100ERS3_
FNA:10,57691,_ZNSt3__16vectorIfNS_9allocatorIfEEE16__destroy_vectorC2B8ne200100ERS3_
FNA:10,57691,_ZNSt3__16vectorIhNS_9allocatorIhEEE16__destroy_vectorC1B8ne200100ERS3_
FNA:10,57691,_ZNSt3__16vectorIhNS_9allocatorIhEEE16__destroy_vectorC2B8ne200100ERS3_
FNA:10,20,_ZNSt3__16vectorIiNS_9allocatorIiEEE16__destroy_vectorC1B8ne200100ERS3_
FNA:10,20,_ZNSt3__16vectorIiNS_9allocatorIiEEE16__destroy_vectorC2B8ne200100ERS3_
FNL:11,246,252
FNA:11,5,_ZNSt3__16vectorIN14StabilizerCore16StabilizerParamsENS_9allocatorIS2_EEE16__destroy_vectorclB8ne200100Ev
FNA:11,1405,_ZNSt3__16vectorIN2cv3MatENS_9allocatorIS2_EEE16__destroy_vectorclB8ne200100Ev
FNA:11,58637,_ZNSt3__16vectorIN2cv6Point_IfEENS_9allocatorIS3_EEE16__destroy_vectorclB8ne200100Ev
FNA:11,35,_ZNSt3__16vectorIN2cv6Point_IiEENS_9allocatorIS3_EEE16__destroy_vectorclB8ne200100Ev
FNA:11,35,_ZNSt3__16vectorINS0_IN2cv3MatENS_9allocatorIS2_EEEENS3_IS5_EEE16__destroy_vectorclB8ne200100Ev
FNA:11,42,_ZNSt3__16vectorINS_10unique_ptrI14StabilizerCoreNS_14default_deleteIS2_EEEENS_9allocatorIS5_EEE16__destroy_vectorclB8ne200100Ev
FNA:11,55,_ZNSt3__16vectorINS_12basic_stringIcNS_11char_traitsIcEENS_9allocatorIcEEEENS4_IS6_EEE16__destroy_vectorclB8ne200100Ev
FNA:11,5,_ZNSt3__16vectorINS_4pairIiiEENS_9allocatorIS2_EEE16__destroy_vectorclB8ne200100Ev
FNA:11,35,_ZNSt3__16vectorIP14StabilizerCoreNS_9allocatorIS2_EEE16__destroy_vectorclB8ne200100Ev
FNA:11,160,_ZNSt3__16vectorIdNS_9allocatorIdEEE16__destroy_vectorclB8ne200100Ev
FNA:11,57691,_ZNSt3__16vectorIfNS_9allocatorIfEEE16__destroy_vectorclB8ne200100Ev
FNA:11,57691,_ZNSt3__16vectorIhNS_9allocatorIhEEE16__destroy_vectorclB8ne200100Ev
FNA:11,10,_ZNSt3__16vectorIiNS_9allocatorIiEEE16__destroy_vectorclB8ne200100Ev
FNL:12,259,259
FNA:12,5,_ZNSt3__16vectorIN14StabilizerCore16StabilizerParamsENS_9allocatorIS2_EEED1B8ne200100Ev
FNA:12,5,_ZNSt3__16vectorIN14StabilizerCore16StabilizerParamsENS_9allocatorIS2_EEED2B8ne200100Ev
FNA:12,1405,_ZNSt3__16vectorIN2cv3MatENS_9allocatorIS2_EEED1B8ne200100Ev
FNA:12,1405,_ZNSt3__16vectorIN2cv3MatENS_9allocatorIS2_EEED2B8ne200100Ev
FNA:12,58637,_ZNSt3__16vectorIN2cv6Point_IfEENS_9allocatorIS3_EEED1B8ne200100Ev
FNA:12,58637,_ZNSt3__16vectorIN2cv6Point_IfEENS_9allocatorIS3_EEED2B8ne200100Ev
FNA:12,35,_ZNSt3__16vectorIN2cv6Point_IiEENS_9allocatorIS3_EEED1B8ne200100Ev
FNA:12,35,_ZNSt3__16vectorIN2cv6Point_IiEENS_9allocatorIS3_EEED2B8ne200100Ev
FNA:12,35,_ZNSt3__16vectorINS0_IN2cv3MatENS_9allocatorIS2_EEEENS3_IS5_EEED1B8ne200100Ev
FNA:12,35,_ZNSt3__16vectorINS0_IN2cv3MatENS_9allocatorIS2_EEEENS3_IS5_EEED2B8ne200100Ev
FNA:12,42,_ZNSt3__16vectorINS_10unique_ptrI14StabilizerCoreNS_14default_deleteIS2_EEEENS_9allocatorIS5_EEED1B8ne200100Ev
FNA:12,42,_ZNSt3__16vectorINS_10unique_ptrI14StabilizerCoreNS_14default_deleteIS2_EEEENS_9allocatorIS5_EEED2B8ne200100Ev
FNA:12,55,_ZNSt3__16vectorINS_12basic_stringIcNS_11char_traitsIcEENS_9allocatorIcEEEENS4_IS6_EEED1B8ne200100Ev
FNA:12,55,_ZNSt3__16vectorINS_12basic_stringIcNS_11char_traitsIcEENS_9allocatorIcEEEENS4_IS6_EEED2B8ne200100Ev
FNA:12,5,_ZNSt3__16vectorINS_4pairIiiEENS_9allocatorIS2_EEED1B8ne200100Ev
FNA:12,5,_ZNSt3__16vectorINS_4pairIiiEENS_9allocatorIS2_EEED2B8ne200100Ev
FNA:12,35,_ZNSt3__16vectorIP14StabilizerCoreNS_9allocatorIS2_EEED1B8ne200100Ev
FNA:12,35,_ZNSt3__16vectorIP14StabilizerCoreNS_9allocatorIS2_EEED2B8ne200100Ev
FNA:12,160,_ZNSt3__16vectorIdNS_9allocatorIdEEED1B8ne200100Ev
FNA:12,160,_ZNSt3__16vectorIdNS_9allocatorIdEEED2B8ne200100Ev
FNA:12,57691,_ZNSt3__16vectorIfNS_9allocatorIfEEED1B8ne200100Ev
FNA:12,57691,_ZNSt3__16vectorIfNS_9allocatorIfEEED2B8ne200100Ev
FNA:12,57691,_ZNSt3__16vectorIhNS_9allocatorIhEEED1B8ne200100Ev
FNA:12,57691,_ZNSt3__16vectorIhNS_9allocatorIhEEED2B8ne200100Ev
FNA:12,10,_ZNSt3__16vectorIiNS_9allocatorIiEEED1B8ne200100Ev
FNA:12,10,_ZNSt3__16vectorIiNS_9allocatorIiEEED2B8ne200100Ev
FNL:13,261,264
FNA:13,175,_ZNSt3__16vectorIN2cv3MatENS_9allocatorIS2_EEEC1B8ne200100ERKS5_
FNA:13,175,_ZNSt3__16vectorIN2cv3MatENS_9allocatorIS2_EEEC2B8ne200100ERKS5_
FNL:14,273,275
FNA:14,5,_ZNSt3__16vectorIN14StabilizerCore16StabilizerParamsENS_9allocatorIS2_EEEC1B8ne200100ESt16initializer_listIS2_E
FNA:14,5,_ZNSt3__16vectorIN14StabilizerCore16StabilizerParamsENS_9allocatorIS2_EEEC2B8ne200100ESt16initializer_listIS2_E
FNA:14,5,_ZNSt3__16vectorINS0_IN2cv3MatENS_9allocatorIS2_EEEENS3_IS5_EEEC1B8ne200100ESt16initializer_listIS5_E
FNA:14,5,_ZNSt3__16vectorINS0_IN2cv3MatENS_9allocatorIS2_EEEENS3_IS5_EEEC2B8ne200100ESt16initializer_listIS5_E
FNA:14,55,_ZNSt3__16vectorINS_12basic_stringIcNS_11char_traitsIcEENS_9allocatorIcEEEENS4_IS6_EEEC1B8ne200100ESt16initializer_listIS6_E
FNA:14,55,_ZNSt3__16vectorINS_12basic_stringIcNS_11char_traitsIcEENS_9allocatorIcEEEENS4_IS6_EEEC2B8ne200100ESt16initializer_listIS6_E
FNA:14,5,_ZNSt3__16vectorINS_4pairIiiEENS_9allocatorIS2_EEEC1B8ne200100ESt16initializer_listIS2_E
FNA:14,5,_ZNSt3__16vectorINS_4pairIiiEENS_9allocatorIS2_EEEC2B8ne200100ESt16initializer_listIS2_E
FNA:14,5,_ZNSt3__16vectorIP14StabilizerCoreNS_9allocatorIS2_EEEC1B8ne200100ESt16initializer_listIS2_E
FNA:14,5,_ZNSt3__16vectorIP14StabilizerCoreNS_9allocatorIS2_EEEC2B8ne200100ESt16initializer_listIS2_E
FNA:14,10,_ZNSt3__16vectorIiNS_9allocatorIiEEEC1B8ne200100ESt16initializer_listIiE
FNA:14,10,_ZNSt3__16vectorIiNS_9allocatorIiEEEC2B8ne200100ESt16initializer_listIiE
FNL:15,316,318
FNA:15,0,_ZNSt3__16vectorIN2cv6Point_IfEENS_9allocatorIS3_EEE6assignB8ne200100IPS3_Li0EEEvT_S9_
FNL:16,348,349
FNA:16,5,_ZNSt3__16vectorIN14StabilizerCore16StabilizerParamsENS_9allocatorIS2_EEE5beginB8ne200100Ev
FNA:16,1037,_ZNSt3__16vectorIN2cv3MatENS_9allocatorIS2_EEE5beginB8ne200100Ev
FNA:16,72,_ZNSt3__16vectorINS_10unique_ptrI14StabilizerCoreNS_14default_deleteIS2_EEEENS_9allocatorIS5_EEE5beginB8ne200100Ev
FNA:16,5,_ZNSt3__16vectorINS_12basic_stringIcNS_11char_traitsIcEENS_9allocatorIcEEEENS4_IS6_EEE5beginB8ne200100Ev
FNA:16,5,_ZNSt3__16vectorINS_4pairIiiEENS_9allocatorIS2_EEE5beginB8ne200100Ev
FNA:16,0,_ZNSt3__16vectorIdNS_9allocatorIdEEE5beginB8ne200100Ev
FNA:16,10,_ZNSt3__16vectorIiNS_9allocatorIiEEE5beginB8ne200100Ev
FNL:17,351,352
FNA:17,275,_ZNKSt3__16vectorIN2cv3MatENS_9allocatorIS2_EEE5beginB8ne200100Ev
FNA:17,320,_ZNKSt3__16vectorIdNS_9allocatorIdEEE5beginB8ne200100Ev
FNL:18,354,355
FNA:18,5,_ZNSt3__16vectorIN14StabilizerCore16StabilizerParamsENS_9allocatorIS2_EEE3endB8ne200100Ev
FNA:18,1037,_ZNSt3__16vectorIN2cv3MatENS_9allocatorIS2_EEE3endB8ne200100Ev
FNA:18,72,_ZNSt3__16vectorINS_10unique_ptrI14StabilizerCoreNS_14default_deleteIS2_EEEENS_9allocatorIS5_EEE3endB8ne200100Ev
FNA:18,5,_ZNSt3__16vectorINS_12basic_stringIcNS_11char_traitsIcEENS_9allocatorIcEEEENS4_IS6_EEE3endB8ne200100Ev
FNA:18,5,_ZNSt3__16vectorINS_4pairIiiEENS_9allocatorIS2_EEE3endB8ne200100Ev
FNA:18,0,_ZNSt3__16vectorIdNS_9allocatorIdEEE3endB8ne200100Ev
FNA:18,10,_ZNSt3__16vectorIiNS_9allocatorIiEEE3endB8ne200100Ev
FNL:19,357,358
FNA:19,275,_ZNKSt3__16vectorIN2cv3MatENS_9allocatorIS2_EEE3endB8ne200100Ev
FNA:19,320,_ZNKSt3__16vectorIdNS_9allocatorIdEEE3endB8ne200100Ev
FNL:20,384,385
FNA:20,5,_ZNKSt3__16vectorIN14StabilizerCore16StabilizerParamsENS_9allocatorIS2_EEE4sizeB8ne200100Ev
FNA:20,22998,_ZNKSt3__16vectorIN2cv3MatENS_9allocatorIS2_EEE4sizeB8ne200100Ev
FNA:20,733875,_ZNKSt3__16vectorIN2cv6Point_IfEENS_9allocatorIS3_EEE4sizeB8ne200100Ev
FNA:20,30,_ZNKSt3__16vectorIN2cv6Point_IiEENS_9allocatorIS3_EEE4sizeB8ne200100Ev
FNA:20,420,_ZNKSt3__16vectorINS0_IN2cv3MatENS_9allocatorIS2_EEEENS3_IS5_EEE4sizeB8ne200100Ev
FNA:20,554,_ZNKSt3__16vectorINS_10unique_ptrI14StabilizerCoreNS_14default_deleteIS2_EEEENS_9allocatorIS5_EEE4sizeB8ne200100Ev
FNA:20,105,_ZNKSt3__16vectorINS_12basic_stringIcNS_11char_traitsIcEENS_9allocatorIcEEEENS4_IS6_EEE4sizeB8ne200100Ev
FNA:20,5,_ZNKSt3__16vectorINS_4pairIiiEENS_9allocatorIS2_EEE4sizeB8ne200100Ev
FNA:20,660,_ZNKSt3__16vectorIP14StabilizerCoreNS_9allocatorIS2_EEE4sizeB8ne200100Ev
FNA:20,1995,_ZNKSt3__16vectorIdNS_9allocatorIdEEE4sizeB8ne200100Ev
FNA:20,173073,_ZNKSt3__16vectorIfNS_9allocatorIfEEE4sizeB8ne200100Ev
FNA:20,230764,_ZNKSt3__16vectorIhNS_9allocatorIhEEE4sizeB8ne200100Ev
FNA:20,10,_ZNKSt3__16vectorIiNS_9allocatorIiEEE4sizeB8ne200100Ev
FNL:21,387,388
FNA:21,5,_ZNKSt3__16vectorIN14StabilizerCore16StabilizerParamsENS_9allocatorIS2_EEE8capacityB8ne200100Ev
FNA:21,8511,_ZNKSt3__16vectorIN2cv3MatENS_9allocatorIS2_EEE8capacityB8ne200100Ev
FNA:21,127925,_ZNKSt3__16vectorIN2cv6Point_IfEENS_9allocatorIS3_EEE8capacityB8ne200100Ev
FNA:21,30,_ZNKSt3__16vectorIN2cv6Point_IiEENS_9allocatorIS3_EEE8capacityB8ne200100Ev
FNA:21,145,_ZNKSt3__16vectorINS0_IN2cv3MatENS_9allocatorIS2_EEEENS3_IS5_EEE8capacityB8ne200100Ev
FNA:21,207,_ZNKSt3__16vectorINS_10unique_ptrI14StabilizerCoreNS_14default_deleteIS2_EEEENS_9allocatorIS5_EEE8capacityB8ne200100Ev
FNA:21,55,_ZNKSt3__16vectorINS_12basic_stringIcNS_11char_traitsIcEENS_9allocatorIcEEEENS4_IS6_EEE8capacityB8ne200100Ev
FNA:21,5,_ZNKSt3__16vectorINS_4pairIiiEENS_9allocatorIS2_EEE8capacityB8ne200100Ev
FNA:21,145,_ZNKSt3__16vectorIP14StabilizerCoreNS_9allocatorIS2_EEE8capacityB8ne200100Ev
FNA:21,665,_ZNKSt3__16vectorIdNS_9allocatorIdEEE8capacityB8ne200100Ev
FNA:21,115382,_ZNKSt3__16vectorIfNS_9allocatorIfEEE8capacityB8ne200100Ev
FNA:21,115382,_ZNKSt3__16vectorIhNS_9allocatorIhEEE8capacityB8ne200100Ev
FNA:21,10,_ZNKSt3__16vectorIiNS_9allocatorIiEEE8capacityB8ne200100Ev
FNL:22,390,391
FNA:22,71062,_ZNKSt3__16vectorIN2cv6Point_IfEENS_9allocatorIS3_EEE5emptyB8ne200100Ev
FNA:22,35,_ZNKSt3__16vectorIN2cv6Point_IiEENS_9allocatorIS3_EEE5emptyB8ne200100Ev
FNA:22,160,_ZNKSt3__16vectorIdNS_9allocatorIdEEE5emptyB8ne200100Ev
FNL:23,393,394
FNA:23,5,_ZNKSt3__16vectorIN14StabilizerCore16StabilizerParamsENS_9allocatorIS2_EEE8max_sizeB8ne200100Ev
FNA:23,7281,_ZNKSt3__16vectorIN2cv3MatENS_9allocatorIS2_EEE8max_sizeB8ne200100Ev
FNA:23,58400,_ZNKSt3__16vectorIN2cv6Point_IfEENS_9allocatorIS3_EEE8max_sizeB8ne200100Ev
FNA:23,115,_ZNKSt3__16vectorINS0_IN2cv3MatENS_9allocatorIS2_EEEENS3_IS5_EEE8max_sizeB8ne200100Ev
FNA:23,165,_ZNKSt3__16vectorINS_10unique_ptrI14StabilizerCoreNS_14default_deleteIS2_EEEENS_9allocatorIS5_EEE8max_sizeB8ne200100Ev
FNA:23,55,_ZNKSt3__16vectorINS_12basic_stringIcNS_11char_traitsIcEENS_9allocatorIcEEEENS4_IS6_EEE8max_sizeB8ne200100Ev
FNA:23,5,_ZNKSt3__16vectorINS_4pairIiiEENS_9allocatorIS2_EEE8max_sizeB8ne200100Ev
FNA:23,115,_ZNKSt3__16vectorIP14StabilizerCoreNS_9allocatorIS2_EEE8max_sizeB8ne200100Ev
FNA:23,585,_ZNKSt3__16vectorIdNS_9allocatorIdEEE8max_sizeB8ne200100Ev
FNA:23,57691,_ZNKSt3__16vectorIfNS_9allocatorIfEEE8max_sizeB8ne200100Ev
FNA:23,57691,_ZNKSt3__16vectorIhNS_9allocatorIhEEE8max_sizeB8ne200100Ev
FNA:23,10,_ZNKSt3__16vectorIiNS_9allocatorIiEEE8max_sizeB8ne200100Ev
FNL:24,402,404
FNA:24,11555,_ZNSt3__16vectorIN2cv3MatENS_9allocatorIS2_EEEixB8ne200100Em
FNA:24,230684,_ZNSt3__16vectorIN2cv6Point_IfEENS_9allocatorIS3_EEEixB8ne200100Em
FNA:24,0,_ZNSt3__16vectorINS_10unique_ptrI14StabilizerCoreNS_14default_deleteIS2_EEEENS_9allocatorIS5_EEEixB8ne200100Em
FNA:24,50,_ZNSt3__16vectorINS_12basic_stringIcNS_11char_traitsIcEENS_9allocatorIcEEEENS4_IS6_EEEixB8ne200100Em
FNA:24,195,_ZNSt3__16vectorIP14StabilizerCoreNS_9allocatorIS2_EEEixB8ne200100Em
FNA:24,93136,_ZNSt3__16vectorIhNS_9allocatorIhEEEixB8ne200100Em
FNL:25,406,408
FNA:25,195,_ZNKSt3__16vectorINS0_IN2cv3MatENS_9allocatorIS2_EEEENS3_IS5_EEEixB8ne200100Em
FNL:26,452,452
FNA:26,7000,_ZNSt3__16vectorIN2cv3MatENS_9allocatorIS2_EEE9push_backB8ne200100ERKS2_
FNA:26,155,_ZNSt3__16vectorINS0_IN2cv3MatENS_9allocatorIS2_EEEENS3_IS5_EEE9push_backB8ne200100ERKS5_
FNL:27,454,454
FNA:27,59725,_ZNSt3__16vectorIN2cv3MatENS_9allocatorIS2_EEE9push_backB8ne200100EOS2_
FNA:27,250,_ZNSt3__16vectorINS_10unique_ptrI14StabilizerCoreNS_14default_deleteIS2_EEEENS_9allocatorIS5_EEE9push_backB8ne200100EOS5_
FNA:27,185,_ZNSt3__16vectorIP14StabilizerCoreNS_9allocatorIS2_EEE9push_backB8ne200100EOS2_
FNA:27,5250,_ZNSt3__16vectorIdNS_9allocatorIdEEE9push_backB8ne200100EOd
FNL:28,473,476
FNA:28,10,_ZNSt3__16vectorINS0_IN2cv3MatENS_9allocatorIS2_EEEENS3_IS5_EEE8pop_backB8ne200100Ev
FNA:28,10,_ZNSt3__16vectorINS_10unique_ptrI14StabilizerCoreNS_14default_deleteIS2_EEEENS_9allocatorIS5_EEE8pop_backB8ne200100Ev
FNL:29,502,503
FNA:29,20,_ZNSt3__16vectorIN2cv3MatENS_9allocatorIS2_EEE6insertB8ne200100INS_11__wrap_iterIPS2_EELi0EEES9_NS7_IPKS2_EET_SD_
FNL:30,529,550
FNA:30,5,_ZNSt3__16vectorIN14StabilizerCore16StabilizerParamsENS_9allocatorIS2_EEE5clearB8ne200100Ev
FNA:30,1405,_ZNSt3__16vectorIN2cv3MatENS_9allocatorIS2_EEE5clearB8ne200100Ev
FNA:30,60700,_ZNSt3__16vectorIN2cv6Point_IfEENS_9allocatorIS3_EEE5clearB8ne200100Ev
FNA:30,30,_ZNSt3__16vectorIN2cv6Point_IiEENS_9allocatorIS3_EEE5clearB8ne200100Ev
FNA:30,35,_ZNSt3__16vectorINS0_IN2cv3MatENS_9allocatorIS2_EEEENS3_IS5_EEE5clearB8ne200100Ev
FNA:30,49,_ZNSt3__16vectorINS_10unique_ptrI14StabilizerCoreNS_14default_deleteIS2_EEEENS_9allocatorIS5_EEE5clearB8ne200100Ev
FNA:30,55,_ZNSt3__16vectorINS_12basic_stringIcNS_11char_traitsIcEENS_9allocatorIcEEEENS4_IS6_EEE5clearB8ne200100Ev
FNA:30,5,_ZNSt3__16vectorINS_4pairIiiEENS_9allocatorIS2_EEE5clearB8ne200100Ev
FNA:30,45,_ZNSt3__16vectorIP14StabilizerCoreNS_9allocatorIS2_EEE5clearB8ne200100Ev
FNA:30,80,_ZNSt3__16vectorIdNS_9allocatorIdEEE5clearB8ne200100Ev
FNA:30,57691,_ZNSt3__16vectorIfNS_9allocatorIfEEE5clearB8ne200100Ev
FNA:30,57691,_ZNSt3__16vectorIhNS_9allocatorIhEEE5clearB8ne200100Ev
FNA:30,10,_ZNSt3__16vectorIiNS_9allocatorIiEEE5clearB8ne200100Ev
FNL:31,559,567
FNA:31,5,_ZNSt3__16vectorIN14StabilizerCore16StabilizerParamsENS_9allocatorIS2_EEE11__vallocateB8ne200100Em
FNA:31,175,_ZNSt3__16vectorIN2cv3MatENS_9allocatorIS2_EEE11__vallocateB8ne200100Em
FNA:31,0,_ZNSt3__16vectorIN2cv6Point_IfEENS_9allocatorIS3_EEE11__vallocateB8ne200100Em
FNA:31,5,_ZNSt3__16vectorINS0_IN2cv3MatENS_9allocatorIS2_EEEENS3_IS5_EEE11__vallocateB8ne200100Em
FNA:31,55,_ZNSt3__16vectorINS_12basic_stringIcNS_11char_traitsIcEENS_9allocatorIcEEEENS4_IS6_EEE11__vallocateB8ne200100Em
FNA:31,5,_ZNSt3__16vectorINS_4pairIiiEENS_9allocatorIS2_EEE11__vallocateB8ne200100Em
FNA:31,5,_ZNSt3__16vectorIP14StabilizerCoreNS_9allocatorIS2_EEE11__vallocateB8ne200100Em
FNA:31,0,_ZNSt3__16vectorIdNS_9allocatorIdEEE11__vallocateB8ne200100Em
FNA:31,10,_ZNSt3__16vectorIiNS_9allocatorIiEEE11__vallocateB8ne200100Em
FNL:32,576,585
FNA:32,5,_ZNSt3__16vectorIN14StabilizerCore16StabilizerParamsENS_9allocatorIS2_EEE16__init_with_sizeB8ne200100IPKS2_S8_EEvT_T0_m
FNA:32,175,_ZNSt3__16vectorIN2cv3MatENS_9allocatorIS2_EEE16__init_with_sizeB8ne200100IPS2_S7_EEvT_T0_m
FNA:32,5,_ZNSt3__16vectorINS0_IN2cv3MatENS_9allocatorIS2_EEEENS3_IS5_EEE16__init_with_sizeB8ne200100IPKS5_SA_EEvT_T0_m
FNA:32,55,_ZNSt3__16vectorINS_12basic_stringIcNS_11char_traitsIcEENS_9allocatorIcEEEENS4_IS6_EEE16__init_with_sizeB8ne200100IPKS6_SB_EEvT_T0_m
FNA:32,5,_ZNSt3__16vectorINS_4pairIiiEENS_9allocatorIS2_EEE16__init_with_sizeB8ne200100IPKS2_S8_EEvT_T0_m
FNA:32,5,_ZNSt3__16vectorIP14StabilizerCoreNS_9allocatorIS2_EEE16__init_with_sizeB8ne200100IPKS2_S8_EEvT_T0_m
FNA:32,0,_ZNSt3__16vectorIdNS_9allocatorIdEEE16__init_with_sizeB8ne200100INS_11__wrap_iterIPdEES7_EEvT_T0_m
FNA:32,10,_ZNSt3__16vectorIiNS_9allocatorIiEEE16__init_with_sizeB8ne200100IPKiS6_EEvT_T0_m
FNL:33,623,639
FNA:33,10,_ZNSt3__16vectorIN14StabilizerCore16StabilizerParamsENS_9allocatorIS2_EEE11__make_iterB8ne200100EPS2_
FNA:33,2094,_ZNSt3__16vectorIN2cv3MatENS_9allocatorIS2_EEE11__make_iterB8ne200100EPS2_
FNA:33,144,_ZNSt3__16vectorINS_10unique_ptrI14StabilizerCoreNS_14default_deleteIS2_EEEENS_9allocatorIS5_EEE11__make_iterB8ne200100EPS5_
FNA:33,10,_ZNSt3__16vectorINS_12basic_stringIcNS_11char_traitsIcEENS_9allocatorIcEEEENS4_IS6_EEE11__make_iterB8ne200100EPS6_
FNA:33,10,_ZNSt3__16vectorINS_4pairIiiEENS_9allocatorIS2_EEE11__make_iterB8ne200100EPS2_
FNA:33,0,_ZNSt3__16vectorIdNS_9allocatorIdEEE11__make_iterB8ne200100EPd
FNA:33,20,_ZNSt3__16vectorIiNS_9allocatorIiEEE11__make_iterB8ne200100EPi
FNL:34,643,651
FNA:34,550,_ZNKSt3__16vectorIN2cv3MatENS_9allocatorIS2_EEE11__make_iterB8ne200100EPKS2_
FNA:34,640,_ZNKSt3__16vectorIdNS_9allocatorIdEEE11__make_iterB8ne200100EPKd
FNL:35,665,669
FNA:35,23630,_ZNSt3__16vectorIN2cv6Point_IfEENS_9allocatorIS3_EEE17__destruct_at_endB8ne200100EPS3_
FNA:35,10,_ZNSt3__16vectorINS0_IN2cv3MatENS_9allocatorIS2_EEEENS3_IS5_EEE17__destruct_at_endB8ne200100EPS5_
FNA:35,10,_ZNSt3__16vectorINS_10unique_ptrI14StabilizerCoreNS_14default_deleteIS2_EEEENS_9allocatorIS5_EEE17__destruct_at_endB8ne200100EPS5_
FNL:36,687,692
FNA:36,5,_ZNKSt3__16vectorIN14StabilizerCore16StabilizerParamsENS_9allocatorIS2_EEE14__annotate_newB8ne200100Em
FNA:36,7281,_ZNKSt3__16vectorIN2cv3MatENS_9allocatorIS2_EEE14__annotate_newB8ne200100Em
FNA:36,58400,_ZNKSt3__16vectorIN2cv6Point_IfEENS_9allocatorIS3_EEE14__annotate_newB8ne200100Em
FNA:36,115,_ZNKSt3__16vectorINS0_IN2cv3MatENS_9allocatorIS2_EEEENS3_IS5_EEE14__annotate_newB8ne200100Em
FNA:36,165,_ZNKSt3__16vectorINS_10unique_ptrI14StabilizerCoreNS_14default_deleteIS2_EEEENS_9allocatorIS5_EEE14__annotate_newB8ne200100Em
FNA:36,55,_ZNKSt3__16vectorINS_12basic_stringIcNS_11char_traitsIcEENS_9allocatorIcEEEENS4_IS6_EEE14__annotate_newB8ne200100Em
FNA:36,5,_ZNKSt3__16vectorINS_4pairIiiEENS_9allocatorIS2_EEE14__annotate_newB8ne200100Em
FNA:36,115,_ZNKSt3__16vectorIP14StabilizerCoreNS_9allocatorIS2_EEE14__annotate_newB8ne200100Em
FNA:36,585,_ZNKSt3__16vectorIdNS_9allocatorIdEEE14__annotate_newB8ne200100Em
FNA:36,57691,_ZNKSt3__16vectorIfNS_9allocatorIfEEE14__annotate_newB8ne200100Em
FNA:36,57691,_ZNKSt3__16vectorIhNS_9allocatorIhEEE14__annotate_newB8ne200100Em
FNA:36,10,_ZNKSt3__16vectorIiNS_9allocatorIiEEE14__annotate_newB8ne200100Em
FNL:37,694,698
FNA:37,5,_ZNKSt3__16vectorIN14StabilizerCore16StabilizerParamsENS_9allocatorIS2_EEE17__annotate_deleteB8ne200100Ev
FNA:37,8511,_ZNKSt3__16vectorIN2cv3MatENS_9allocatorIS2_EEE17__annotate_deleteB8ne200100Ev
FNA:37,116727,_ZNKSt3__16vectorIN2cv6Point_IfEENS_9allocatorIS3_EEE17__annotate_deleteB8ne200100Ev
FNA:37,30,_ZNKSt3__16vectorIN2cv6Point_IiEENS_9allocatorIS3_EEE17__annotate_deleteB8ne200100Ev
FNA:37,145,_ZNKSt3__16vectorINS0_IN2cv3MatENS_9allocatorIS2_EEEENS3_IS5_EEE17__annotate_deleteB8ne200100Ev
FNA:37,207,_ZNKSt3__16vectorINS_10unique_ptrI14StabilizerCoreNS_14default_deleteIS2_EEEENS_9allocatorIS5_EEE17__annotate_deleteB8ne200100Ev
FNA:37,55,_ZNKSt3__16vectorINS_12basic_stringIcNS_11char_traitsIcEENS_9allocatorIcEEEENS4_IS6_EEE17__annotate_deleteB8ne200100Ev
FNA:37,5,_ZNKSt3__16vectorINS_4pairIiiEENS_9allocatorIS2_EEE17__annotate_deleteB8ne200100Ev
FNA:37,145,_ZNKSt3__16vectorIP14StabilizerCoreNS_9allocatorIS2_EEE17__annotate_deleteB8ne200100Ev
FNA:37,665,_ZNKSt3__16vectorIdNS_9allocatorIdEEE17__annotate_deleteB8ne200100Ev
FNA:37,115382,_ZNKSt3__16vectorIfNS_9allocatorIfEEE17__annotate_deleteB8ne200100Ev
FNA:37,115382,_ZNKSt3__16vectorIhNS_9allocatorIhEEE17__annotate_deleteB8ne200100Ev
FNA:37,10,_ZNKSt3__16vectorIiNS_9allocatorIiEEE17__annotate_deleteB8ne200100Ev
FNL:38,707,712
FNA:38,5,_ZNKSt3__16vectorIN14StabilizerCore16StabilizerParamsENS_9allocatorIS2_EEE17__annotate_shrinkB8ne200100Em
FNA:38,1405,_ZNKSt3__16vectorIN2cv3MatENS_9allocatorIS2_EEE17__annotate_shrinkB8ne200100Em
FNA:38,84330,_ZNKSt3__16vectorIN2cv6Point_IfEENS_9allocatorIS3_EEE17__annotate_shrinkB8ne200100Em
FNA:38,30,_ZNKSt3__16vectorIN2cv6Point_IiEENS_9allocatorIS3_EEE17__annotate_shrinkB8ne200100Em
FNA:38,45,_ZNKSt3__16vectorINS0_IN2cv3MatENS_9allocatorIS2_EEEENS3_IS5_EEE17__annotate_shrinkB8ne200100Em
FNA:38,59,_ZNKSt3__16vectorINS_10unique_ptrI14StabilizerCoreNS_14default_deleteIS2_EEEENS_9allocatorIS5_EEE17__annotate_shrinkB8ne200100Em
FNA:38,55,_ZNKSt3__16vectorINS_12basic_stringIcNS_11char_traitsIcEENS_9allocatorIcEEEENS4_IS6_EEE17__annotate_shrinkB8ne200100Em
FNA:38,5,_ZNKSt3__16vectorINS_4pairIiiEENS_9allocatorIS2_EEE17__annotate_shrinkB8ne200100Em
FNA:38,45,_ZNKSt3__16vectorIP14StabilizerCoreNS_9allocatorIS2_EEE17__annotate_shrinkB8ne200100Em
FNA:38,80,_ZNKSt3__16vectorIdNS_9allocatorIdEEE17__annotate_shrinkB8ne200100Em
FNA:38,57691,_ZNKSt3__16vectorIfNS_9allocatorIfEEE17__annotate_shrinkB8ne200100Em
FNA:38,57691,_ZNKSt3__16vectorIhNS_9allocatorIhEEE17__annotate_shrinkB8ne200100Em
FNA:38,10,_ZNKSt3__16vectorIiNS_9allocatorIiEEE17__annotate_shrinkB8ne200100Em
FNL:39,715,720
FNA:39,5,_ZNSt3__16vectorIN14StabilizerCore16StabilizerParamsENS_9allocatorIS2_EEE21_ConstructTransactionC1B8ne200100ERS5_m
FNA:39,5,_ZNSt3__16vectorIN14StabilizerCore16StabilizerParamsENS_9allocatorIS2_EEE21_ConstructTransactionC2B8ne200100ERS5_m
FNA:39,59814,_ZNSt3__16vectorIN2cv3MatENS_9allocatorIS2_EEE21_ConstructTransactionC1B8ne200100ERS5_m
FNA:39,59814,_ZNSt3__16vectorIN2cv3MatENS_9allocatorIS2_EEE21_ConstructTransactionC2B8ne200100ERS5_m
FNA:39,0,_ZNSt3__16vectorIN2cv6Point_IfEENS_9allocatorIS3_EEE21_ConstructTransactionC1B8ne200100ERS6_m
FNA:39,0,_ZNSt3__16vectorIN2cv6Point_IfEENS_9allocatorIS3_EEE21_ConstructTransactionC2B8ne200100ERS6_m
FNA:39,50,_ZNSt3__16vectorINS0_IN2cv3MatENS_9allocatorIS2_EEEENS3_IS5_EEE21_ConstructTransactionC1B8ne200100ERS7_m
FNA:39,50,_ZNSt3__16vectorINS0_IN2cv3MatENS_9allocatorIS2_EEEENS3_IS5_EEE21_ConstructTransactionC2B8ne200100ERS7_m
FNA:39,85,_ZNSt3__16vectorINS_10unique_ptrI14StabilizerCoreNS_14default_deleteIS2_EEEENS_9allocatorIS5_EEE21_ConstructTransactionC1B8ne200100ERS8_m
FNA:39,85,_ZNSt3__16vectorINS_10unique_ptrI14StabilizerCoreNS_14default_deleteIS2_EEEENS_9allocatorIS5_EEE21_ConstructTransactionC2B8ne200100ERS8_m
FNA:39,55,_ZNSt3__16vectorINS_12basic_stringIcNS_11char_traitsIcEENS_9allocatorIcEEEENS4_IS6_EEE21_ConstructTransactionC1B8ne200100ERS8_m
FNA:39,55,_ZNSt3__16vectorINS_12basic_stringIcNS_11char_traitsIcEENS_9allocatorIcEEEENS4_IS6_EEE21_ConstructTransactionC2B8ne200100ERS8_m
FNA:39,5,_ZNSt3__16vectorINS_4pairIiiEENS_9allocatorIS2_EEE21_ConstructTransactionC1B8ne200100ERS5_m
FNA:39,5,_ZNSt3__16vectorINS_4pairIiiEENS_9allocatorIS2_EEE21_ConstructTransactionC2B8ne200100ERS5_m
FNA:39,80,_ZNSt3__16vectorIP14StabilizerCoreNS_9allocatorIS2_EEE21_ConstructTransactionC1B8ne200100ERS5_m
FNA:39,80,_ZNSt3__16vectorIP14StabilizerCoreNS_9allocatorIS2_EEE21_ConstructTransactionC2B8ne200100ERS5_m
FNA:39,4665,_ZNSt3__16vectorIdNS_9allocatorIdEEE21_ConstructTransactionC1B8ne200100ERS3_m
FNA:39,4665,_ZNSt3__16vectorIdNS_9allocatorIdEEE21_ConstructTransactionC2B8ne200100ERS3_m
FNA:39,10,_ZNSt3__16vectorIiNS_9allocatorIiEEE21_ConstructTransactionC1B8ne200100ERS3_m
FNA:39,10,_ZNSt3__16vectorIiNS_9allocatorIiEEE21_ConstructTransactionC2B8ne200100ERS3_m
FNL:40,722,729
FNA:40,5,_ZNSt3__16vectorIN14StabilizerCore16StabilizerParamsENS_9allocatorIS2_EEE21_ConstructTransactionD1B8ne200100Ev
FNA:40,5,_ZNSt3__16vectorIN14StabilizerCore16StabilizerParamsENS_9allocatorIS2_EEE21_ConstructTransactionD2B8ne200100Ev
FNA:40,59814,_ZNSt3__16vectorIN2cv3MatENS_9allocatorIS2_EEE21_ConstructTransactionD1B8ne200100Ev
FNA:40,59814,_ZNSt3__16vectorIN2cv3MatENS_9allocatorIS2_EEE21_ConstructTransactionD2B8ne200100Ev
FNA:40,0,_ZNSt3__16vectorIN2cv6Point_IfEENS_9allocatorIS3_EEE21_ConstructTransactionD1B8ne200100Ev
FNA:40,0,_ZNSt3__16vectorIN2cv6Point_IfEENS_9allocatorIS3_EEE21_ConstructTransactionD2B8ne200100Ev
FNA:40,50,_ZNSt3__16vectorINS0_IN2cv3MatENS_9allocatorIS2_EEEENS3_IS5_EEE21_ConstructTransactionD1B8ne200100Ev
FNA:40,50,_ZNSt3__16vectorINS0_IN2cv3MatENS_9allocatorIS2_EEEENS3_IS5_EEE21_ConstructTransactionD2B8ne200100Ev
FNA:40,85,_ZNSt3__16vectorINS_10unique_ptrI14StabilizerCoreNS_14default_deleteIS2_EEEENS_9allocatorIS5_EEE21_ConstructTransactionD1B8ne200100Ev
FNA:40,85,_ZNSt3__16vectorINS_10unique_ptrI14StabilizerCoreNS_14default_deleteIS2_EEEENS_9allocatorIS5_EEE21_ConstructTransactionD2B8ne200100Ev
FNA:40,55,_ZNSt3__16vectorINS_12basic_stringIcNS_11char_traitsIcEENS_9allocatorIcEEEENS4_IS6_EEE21_ConstructTransactionD1B8ne200100Ev
FNA:40,55,_ZNSt3__16vectorINS_12basic_stringIcNS_11char_traitsIcEENS_9allocatorIcEEEENS4_IS6_EEE21_ConstructTransactionD2B8ne200100Ev
FNA:40,5,_ZNSt3__16vectorINS_4pairIiiEENS_9allocatorIS2_EEE21_ConstructTransactionD1B8ne200100Ev
FNA:40,5,_ZNSt3__16vectorINS_4pairIiiEENS_9allocatorIS2_EEE21_ConstructTransactionD2B8ne200100Ev
FNA:40,80,_ZNSt3__16vectorIP14StabilizerCoreNS_9allocatorIS2_EEE21_ConstructTransactionD1B8ne200100Ev
FNA:40,80,_ZNSt3__16vectorIP14StabilizerCoreNS_9allocatorIS2_EEE21_ConstructTransactionD2B8ne200100Ev
FNA:40,4665,_ZNSt3__16vectorIdNS_9allocatorIdEEE21_ConstructTransactionD1B8ne200100Ev
FNA:40,4665,_ZNSt3__16vectorIdNS_9allocatorIdEEE21_ConstructTransactionD2B8ne200100Ev
FNA:40,10,_ZNSt3__16vectorIiNS_9allocatorIiEEE21_ConstructTransactionD1B8ne200100Ev
FNA:40,10,_ZNSt3__16vectorIiNS_9allocatorIiEEE21_ConstructTransactionD2B8ne200100Ev
FNL:41,740,744
FNA:41,6923,_ZNSt3__16vectorIN2cv3MatENS_9allocatorIS2_EEE22__construct_one_at_endB8ne200100IJRKS2_EEEvDpOT_
FNA:41,52711,_ZNSt3__16vectorIN2cv3MatENS_9allocatorIS2_EEE22__construct_one_at_endB8ne200100IJS2_EEEvDpOT_
FNA:41,45,_ZNSt3__16vectorINS0_IN2cv3MatENS_9allocatorIS2_EEEENS3_IS5_EEE22__construct_one_at_endB8ne200100IJRKS5_EEEvDpOT_
FNA:41,85,_ZNSt3__16vectorINS_10unique_ptrI14StabilizerCoreNS_14default_deleteIS2_EEEENS_9allocatorIS5_EEE22__construct_one_at_endB8ne200100IJS5_EEEvDpOT_
FNA:41,75,_ZNSt3__16vectorIP14StabilizerCoreNS_9allocatorIS2_EEE22__construct_one_at_endB8ne200100IJS2_EEEvDpOT_
FNA:41,4665,_ZNSt3__16vectorIdNS_9allocatorIdEEE22__construct_one_at_endB8ne200100IJdEEEvDpOT_
FNL:42,746,751
FNA:42,5,_ZNSt3__16vectorIN14StabilizerCore16StabilizerParamsENS_9allocatorIS2_EEE22__base_destruct_at_endB8ne200100EPS2_
FNA:42,1405,_ZNSt3__16vectorIN2cv3MatENS_9allocatorIS2_EEE22__base_destruct_at_endB8ne200100EPS2_
FNA:42,84330,_ZNSt3__16vectorIN2cv6Point_IfEENS_9allocatorIS3_EEE22__base_destruct_at_endB8ne200100EPS3_
FNA:42,30,_ZNSt3__16vectorIN2cv6Point_IiEENS_9allocatorIS3_EEE22__base_destruct_at_endB8ne200100EPS3_
FNA:42,45,_ZNSt3__16vectorINS0_IN2cv3MatENS_9allocatorIS2_EEEENS3_IS5_EEE22__base_destruct_at_endB8ne200100EPS5_
FNA:42,59,_ZNSt3__16vectorINS_10unique_ptrI14StabilizerCoreNS_14default_deleteIS2_EEEENS_9allocatorIS5_EEE22__base_destruct_at_endB8ne200100EPS5_
FNA:42,55,_ZNSt3__16vectorINS_12basic_stringIcNS_11char_traitsIcEENS_9allocatorIcEEEENS4_IS6_EEE22__base_destruct_at_endB8ne200100EPS6_
FNA:42,5,_ZNSt3__16vectorINS_4pairIiiEENS_9allocatorIS2_EEE22__base_destruct_at_endB8ne200100EPS2_
FNA:42,45,_ZNSt3__16vectorIP14StabilizerCoreNS_9allocatorIS2_EEE22__base_destruct_at_endB8ne200100EPS2_
FNA:42,80,_ZNSt3__16vectorIdNS_9allocatorIdEEE22__base_destruct_at_endB8ne200100EPd
FNA:42,57691,_ZNSt3__16vectorIfNS_9allocatorIfEEE22__base_destruct_at_endB8ne200100EPf
FNA:42,57691,_ZNSt3__16vectorIhNS_9allocatorIhEEE22__base_destruct_at_endB8ne200100EPh
FNA:42,10,_ZNSt3__16vectorIiNS_9allocatorIiEEE22__base_destruct_at_endB8ne200100EPi
FNL:43,753,755
FNA:43,0,_ZNSt3__16vectorIN2cv6Point_IfEENS_9allocatorIS3_EEE19__copy_assign_allocB8ne200100ERKS6_
FNL:44,763,763
FNA:44,0,_ZNSt3__16vectorIN14StabilizerCore16StabilizerParamsENS_9allocatorIS2_EEE20__throw_length_errorB8ne200100Ev
FNA:44,0,_ZNSt3__16vectorIN2cv3MatENS_9allocatorIS2_EEE20__throw_length_errorB8ne200100Ev
FNA:44,0,_ZNSt3__16vectorIN2cv6Point_IfEENS_9allocatorIS3_EEE20__throw_length_errorB8ne200100Ev
FNA:44,0,_ZNSt3__16vectorINS0_IN2cv3MatENS_9allocatorIS2_EEEENS3_IS5_EEE20__throw_length_errorB8ne200100Ev
FNA:44,0,_ZNSt3__16vectorINS_10unique_ptrI14StabilizerCoreNS_14default_deleteIS2_EEEENS_9allocatorIS5_EEE20__throw_length_errorB8ne200100Ev
FNA:44,0,_ZNSt3__16vectorINS_12basic_stringIcNS_11char_traitsIcEENS_9allocatorIcEEEENS4_IS6_EEE20__throw_length_errorB8ne200100Ev
FNA:44,0,_ZNSt3__16vectorINS_4pairIiiEENS_9allocatorIS2_EEE20__throw_length_errorB8ne200100Ev
FNA:44,0,_ZNSt3__16vectorIP14StabilizerCoreNS_9allocatorIS2_EEE20__throw_length_errorB8ne200100Ev
FNA:44,0,_ZNSt3__16vectorIdNS_9allocatorIdEEE20__throw_length_errorB8ne200100Ev
FNA:44,0,_ZNSt3__16vectorIfNS_9allocatorIfEEE20__throw_length_errorB8ne200100Ev
FNA:44,0,_ZNSt3__16vectorIhNS_9allocatorIhEEE20__throw_length_errorB8ne200100Ev
FNA:44,0,_ZNSt3__16vectorIiNS_9allocatorIiEEE20__throw_length_errorB8ne200100Ev
FNL:45,777,777
FNA:45,0,_ZNSt3__16vectorIN2cv6Point_IfEENS_9allocatorIS3_EEE19__copy_assign_allocB8ne200100ERKS6_NS_17integral_constantIbLb0EEE
FNL:46,788,790
FNA:46,10,_ZNSt3__16vectorIN14StabilizerCore16StabilizerParamsENS_9allocatorIS2_EEE26__add_alignment_assumptionB8ne200100IPS2_Li0EEES7_T_
FNA:46,2624,_ZNSt3__16vectorIN2cv3MatENS_9allocatorIS2_EEE26__add_alignment_assumptionB8ne200100IPS2_Li0EEES7_T_
FNA:46,144,_ZNSt3__16vectorINS_10unique_ptrI14StabilizerCoreNS_14default_deleteIS2_EEEENS_9allocatorIS5_EEE26__add_alignment_assumptionB8ne200100IPS5_Li0EEESA_T_
FNA:46,10,_ZNSt3__16vectorINS_12basic_stringIcNS_11char_traitsIcEENS_9allocatorIcEEEENS4_IS6_EEE26__add_alignment_assumptionB8ne200100IPS6_Li0EEESA_T_
FNA:46,10,_ZNSt3__16vectorINS_4pairIiiEENS_9allocatorIS2_EEE26__add_alignment_assumptionB8ne200100IPS2_Li0EEES7_T_
FNA:46,640,_ZNSt3__16vectorIdNS_9allocatorIdEEE26__add_alignment_assumptionB8ne200100IPdLi0EEES5_T_
FNA:46,20,_ZNSt3__16vectorIiNS_9allocatorIiEEE26__add_alignment_assumptionB8ne200100IPiLi0EEES5_T_
FNL:47,828,840
FNA:47,7091,_ZNSt3__16vectorIN2cv3MatENS_9allocatorIS2_EEE26__swap_out_circular_bufferERNS_14__split_bufferIS2_RS4_EE
FNA:47,58400,_ZNSt3__16vectorIN2cv6Point_IfEENS_9allocatorIS3_EEE26__swap_out_circular_bufferERNS_14__split_bufferIS3_RS5_EE
FNA:47,110,_ZNSt3__16vectorINS0_IN2cv3MatENS_9allocatorIS2_EEEENS3_IS5_EEE26__swap_out_circular_bufferERNS_14__split_bufferIS5_RS6_EE
FNA:47,165,_ZNSt3__16vectorINS_10unique_ptrI14StabilizerCoreNS_14default_deleteIS2_EEEENS_9allocatorIS5_EEE26__swap_out_circular_bufferERNS_14__split_bufferIS5_RS7_EE
FNA:47,110,_ZNSt3__16vectorIP14StabilizerCoreNS_9allocatorIS2_EEE26__swap_out_circular_bufferERNS_14__split_bufferIS2_RS4_EE
FNA:47,585,_ZNSt3__16vectorIdNS_9allocatorIdEEE26__swap_out_circular_bufferERNS_14__split_bufferIdRS2_EE
FNA:47,57691,_ZNSt3__16vectorIfNS_9allocatorIfEEE26__swap_out_circular_bufferERNS_14__split_bufferIfRS2_EE
FNA:47,57691,_ZNSt3__16vectorIhNS_9allocatorIhEEE26__swap_out_circular_bufferERNS_14__split_bufferIhRS2_EE
FNL:48,848,871
FNA:48,15,_ZNSt3__16vectorIN2cv3MatENS_9allocatorIS2_EEE26__swap_out_circular_bufferERNS_14__split_bufferIS2_RS4_EEPS2_
FNL:49,874,881
FNA:49,0,_ZNSt3__16vectorIN2cv6Point_IfEENS_9allocatorIS3_EEE13__vdeallocateEv
FNL:50,886,894
FNA:50,7106,_ZNKSt3__16vectorIN2cv3MatENS_9allocatorIS2_EEE11__recommendB8ne200100Em
FNA:50,57691,_ZNKSt3__16vectorIN2cv6Point_IfEENS_9allocatorIS3_EEE11__recommendB8ne200100Em
FNA:50,110,_ZNKSt3__16vectorINS0_IN2cv3MatENS_9allocatorIS2_EEEENS3_IS5_EEE11__recommendB8ne200100Em
FNA:50,165,_ZNKSt3__16vectorINS_10unique_ptrI14StabilizerCoreNS_14default_deleteIS2_EEEENS_9allocatorIS5_EEE11__recommendB8ne200100Em
FNA:50,110,_ZNKSt3__16vectorIP14StabilizerCoreNS_9allocatorIS2_EEE11__recommendB8ne200100Em
FNA:50,585,_ZNKSt3__16vectorIdNS_9allocatorIdEEE11__recommendB8ne200100Em
FNL:51,902,908
FNA:51,0,_ZNSt3__16vectorIN2cv6Point_IfEENS_9allocatorIS3_EEE18__construct_at_endEm
FNL:52,929,932
FNA:52,5,_ZNSt3__16vectorIN14StabilizerCore16StabilizerParamsENS_9allocatorIS2_EEE18__construct_at_endIPKS2_S8_EEvT_T0_m
FNA:52,5,_ZNSt3__16vectorIN2cv3MatENS_9allocatorIS2_EEE18__construct_at_endINS_11__wrap_iterIPS2_EES9_EEvT_T0_m
FNA:52,175,_ZNSt3__16vectorIN2cv3MatENS_9allocatorIS2_EEE18__construct_at_endIPS2_S7_EEvT_T0_m
FNA:52,0,_ZNSt3__16vectorIN2cv6Point_IfEENS_9allocatorIS3_EEE18__construct_at_endIPS3_S8_EEvT_T0_m
FNA:52,5,_ZNSt3__16vectorINS0_IN2cv3MatENS_9allocatorIS2_EEEENS3_IS5_EEE18__construct_at_endIPKS5_SA_EEvT_T0_m
FNA:52,55,_ZNSt3__16vectorINS_12basic_stringIcNS_11char_traitsIcEENS_9allocatorIcEEEENS4_IS6_EEE18__construct_at_endIPKS6_SB_EEvT_T0_m
FNA:52,5,_ZNSt3__16vectorINS_4pairIiiEENS_9allocatorIS2_EEE18__construct_at_endIPKS2_S8_EEvT_T0_m
FNA:52,5,_ZNSt3__16vectorIP14StabilizerCoreNS_9allocatorIS2_EEE18__construct_at_endIPKS2_S8_EEvT_T0_m
FNA:52,0,_ZNSt3__16vectorIdNS_9allocatorIdEEE18__construct_at_endINS_11__wrap_iterIPdEES7_EEvT_T0_m
FNA:52,10,_ZNSt3__16vectorIiNS_9allocatorIiEEE18__construct_at_endIPKiS6_EEvT_T0_m
FNL:53,939,947
FNA:53,57691,_ZNSt3__16vectorIN2cv6Point_IfEENS_9allocatorIS3_EEE8__appendEm
FNL:54,965,976
FNA:54,80,_ZNSt3__16vectorIdNS_9allocatorIdEEEC1B8ne200100EOS3_
FNA:54,80,_ZNSt3__16vectorIdNS_9allocatorIdEEEC2B8ne200100EOS3_
FNF:55
FNH:45
DA:133,526398
DA:134,350932
DA:209,0
DA:210,0
DA:211,0
DA:212,0
DA:244,352132
DA:246,175806
DA:247,175806
DA:248,175411
DA:249,175411
DA:250,175411
DA:251,175411
DA:252,175806
DA:259,351612
DA:261,700
DA:262,350
DA:263,175
DA:264,350
DA:273,255
DA:274,85
DA:275,170
DA:316,0
DA:317,0
DA:318,0
DA:348,1134
DA:349,1134
DA:351,595
DA:352,595
DA:354,1134
DA:355,1134
DA:357,595
DA:358,595
DA:384,1164494
DA:385,1164494
DA:387,368467
DA:388,368467
DA:390,71257
DA:391,71257
DA:393,182118
DA:394,182118
DA:402,335620
DA:404,335620
DA:406,195
DA:408,195
DA:452,7155
DA:454,65410
DA:473,20
DA:475,20
DA:476,20
DA:502,20
DA:503,20
DA:529,177801
DA:530,177801
DA:531,177801
DA:532,177801
DA:533,177801
DA:548,175806
DA:549,175806
DA:550,175806
DA:559,260
DA:560,260
DA:561,0
DA:562,260
DA:563,260
DA:564,260
DA:565,260
DA:566,260
DA:567,260
DA:576,260
DA:577,260
DA:579,260
DA:580,260
DA:581,260
DA:582,260
DA:584,260
DA:585,260
DA:623,2288
DA:639,2288
DA:643,1190
DA:651,1190
DA:665,23650
DA:666,23650
DA:667,23650
DA:668,23650
DA:669,23650
DA:687,182118
DA:692,182118
DA:694,357269
DA:698,357269
DA:707,201451
DA:712,201451
DA:715,129538
DA:716,129538
DA:720,129538
DA:722,129538
DA:723,64769
DA:729,129538
DA:740,64504
DA:741,64504
DA:742,64504
DA:743,64504
DA:744,64504
DA:746,201451
DA:747,201451
DA:748,4335784
DA:749,4134333
DA:750,201451
DA:751,201451
DA:753,0
DA:754,0
DA:755,0
DA:763,0
DA:777,0
DA:788,3458
DA:790,3458
DA:828,181843
DA:829,181843
DA:830,181843
DA:831,181843
DA:832,181843
DA:833,181843
DA:834,181843
DA:835,181843
DA:836,181843
DA:837,181843
DA:838,181843
DA:839,181843
DA:840,181843
DA:848,15
DA:849,15
DA:850,15
DA:854,15
DA:855,15
DA:856,15
DA:857,15
DA:858,15
DA:860,15
DA:861,15
DA:862,15
DA:863,15
DA:865,15
DA:866,15
DA:867,15
DA:868,15
DA:869,15
DA:870,30
DA:871,15
DA:874,0
DA:875,0
DA:876,0
DA:877,0
DA:878,0
DA:879,0
DA:880,0
DA:881,0
DA:886,65767
DA:887,65767
DA:888,65767
DA:889,0
DA:890,65767
DA:891,65767
DA:892,0
DA:893,65767
DA:894,65767
DA:902,0
DA:903,0
DA:904,0
DA:905,0
DA:906,0
DA:907,0
DA:908,0
DA:929,265
DA:930,265
DA:931,265
DA:932,265
DA:939,57691
DA:940,57691
DA:941,0
DA:943,57691
DA:944,57691
DA:945,57691
DA:946,57691
DA:947,57691
DA:965,320
DA:971,160
DA:972,80
DA:973,80
DA:974,80
DA:975,80
DA:976,160
DA:1016,0
DA:1017,0
DA:1018,0
DA:1019,0
DA:1020,0
DA:1021,0
DA:1042,0
DA:1043,0
DA:1044,0
DA:1045,0
DA:1050,0
DA:1051,0
DA:1052,0
DA:1054,0
DA:1055,0
DA:1056,0
DA:1057,0
DA:1058,0
DA:1059,0
DA:1060,0
DA:1061,0
DA:1063,0
DA:1082,127289
DA:1083,127289
DA:1084,116091
DA:1085,0
DA:1086,116091
DA:1087,116091
DA:1088,116091
DA:1089,127289
DA:1113,8061
DA:1114,8061
DA:1116,8061
DA:1117,8061
DA:1118,8061
DA:1119,8061
DA:1120,8061
DA:1130,72565
DA:1131,72565
DA:1132,72565
DA:1133,64504
DA:1134,64504
DA:1135,64504
DA:1136,8061
DA:1138,72565
DA:1140,145130
DA:1142,72565
DA:1168,0
DA:1169,0
DA:1170,0
DA:1172,0
DA:1173,0
DA:1174,0
DA:1175,0
DA:1176,0
DA:1177,0
DA:1178,0
DA:1179,0
DA:1309,20
DA:1311,20
DA:1312,20
DA:1313,20
DA:1314,5
DA:1315,5
DA:1316,5
DA:1324,5
DA:1325,5
DA:1326,5
DA:1327,0
DA:1328,0
DA:1329,0
DA:1330,5
DA:1331,5
DA:1332,0
DA:1339,0
DA:1342,5
DA:1343,15
DA:1344,15
DA:1345,15
DA:1346,15
DA:1347,20
DA:1348,20
DA:1349,20
DA:1352,230834
DA:1353,230834
DA:1354,230834
DA:1355,57691
DA:1356,173143
DA:1357,23630
DA:1358,230834
LF:281
LH:211
end_of_record
TN:
SF:/Library/Developer/CommandLineTools/SDKs/MacOSX.sdk/usr/include/c++/v1/deque
FNL:0,1023
FNA:0,3959,_ZNKSt3__15dequeIN2cv3MatENS_9allocatorIS2_EEE14__annotate_newB8ne200100Em
FNL:1,1035
FNA:1,3959,_ZNKSt3__15dequeIN2cv3MatENS_9allocatorIS2_EEE17__annotate_deleteB8ne200100Ev
FNL:2,1055
FNA:2,1396,_ZNKSt3__15dequeIN2cv3MatENS_9allocatorIS2_EEE24__annotate_increase_backB8ne200100Em
FNL:3,1062
FNA:3,0,_ZNKSt3__15dequeIN2cv3MatENS_9allocatorIS2_EEE23__annotate_shrink_frontB8ne200100Emm
FNL:4,1078
FNA:4,12,_ZNKSt3__15dequeIN2cv3MatENS_9allocatorIS2_EEE23__annotate_poison_blockB8ne200100EPKvS7_
FNL:5,1083
FNA:5,541,_ZNKSt3__15dequeIN2cv3MatENS_9allocatorIS2_EEE22__annotate_whole_blockB8ne200100EmNS5_22__asan_annotation_typeE
FNL:6,1162
FNA:6,0,_ZNSt3__15dequeIN2cv3MatENS_9allocatorIS2_EEE26__maybe_remove_front_spareB8ne200100Eb
FNL:7,1312
FNA:7,12,_ZNSt3__15dequeIN2cv3MatENS_9allocatorIS2_EEEC1ERKS5_
FNA:7,12,_ZNSt3__15dequeIN2cv3MatENS_9allocatorIS2_EEEC2ERKS5_
FNL:8,1571
FNA:8,0,_ZNSt3__15dequeIN2cv3MatENS_9allocatorIS2_EEE9push_backERKS2_
FNL:9,1595
FNA:9,1384,_ZNSt3__15dequeIN2cv3MatENS_9allocatorIS2_EEE9push_backEOS2_
FNL:10,1985
FNA:10,12,_ZNSt3__15dequeIN2cv3MatENS_9allocatorIS2_EEE8__appendINS_16__deque_iteratorIS2_PKS2_RS8_PKS9_lLl42EEELi0EEEvT_SE_
FNL:11,1991
FNA:11,12,_ZNSt3__15dequeIN2cv3MatENS_9allocatorIS2_EEE18__append_with_sizeB8ne200100INS_16__deque_iteratorIS2_PKS2_RS8_PKS9_lLl42EEEEEvT_m
FNL:12,2165
FNA:12,541,_ZNSt3__15dequeIN2cv3MatENS_9allocatorIS2_EEE19__add_back_capacityEv
FNL:13,2211
FNA:13,12,_ZNSt3__15dequeIN2cv3MatENS_9allocatorIS2_EEE19__add_back_capacityEm
FNL:14,2288
FNA:14,0,_ZNSt3__15dequeIN2cv3MatENS_9allocatorIS2_EEE9pop_frontEv
FNL:15,2522
FNA:15,3166,_ZNSt3__15dequeIN2cv3MatENS_9allocatorIS2_EEE5clearEv
FNL:16,318
FNA:16,12,_ZNKSt3__116__deque_iteratorIN2cv3MatEPKS2_RS3_PKS4_lLl42EEdeB8ne200100Ev
FNA:16,2780,_ZNKSt3__116__deque_iteratorIN2cv3MatEPS2_RS2_PS3_lLl42EEdeB8ne200100Ev
FNL:17,321
FNA:17,12,_ZNSt3__116__deque_iteratorIN2cv3MatEPKS2_RS3_PKS4_lLl42EEppB8ne200100Ev
FNA:17,1396,_ZNSt3__116__deque_iteratorIN2cv3MatEPS2_RS2_PS3_lLl42EEppB8ne200100Ev
FNL:18,350
FNA:18,12,_ZNSt3__116__deque_iteratorIN2cv3MatEPS2_RS2_PS3_lLl42EEpLB8ne200100El
FNL:19,368
FNA:19,12,_ZNKSt3__116__deque_iteratorIN2cv3MatEPS2_RS2_PS3_lLl42EEplB8ne200100El
FNL:20,384
FNA:20,12,_ZNSt3__1miB8ne200100ERKNS_16__deque_iteratorIN2cv3MatEPKS2_RS3_PKS4_lLl42EEESA_
FNL:21,393
FNA:21,12,_ZNSt3__1eqB8ne200100ERKNS_16__deque_iteratorIN2cv3MatEPKS2_RS3_PKS4_lLl42EEESA_
FNA:21,4586,_ZNSt3__1eqB8ne200100ERKNS_16__deque_iteratorIN2cv3MatEPS2_RS2_PS3_lLl42EEES8_
FNL:22,398
FNA:22,12,_ZNSt3__1neB8ne200100ERKNS_16__deque_iteratorIN2cv3MatEPKS2_RS3_PKS4_lLl42EEESA_
FNA:22,4562,_ZNSt3__1neB8ne200100ERKNS_16__deque_iteratorIN2cv3MatEPS2_RS2_PS3_lLl42EEES8_
FNL:23,442
FNA:23,24,_ZNSt3__116__deque_iteratorIN2cv3MatEPKS2_RS3_PKS4_lLl42EEC1B8ne200100ES7_S4_
FNA:23,24,_ZNSt3__116__deque_iteratorIN2cv3MatEPKS2_RS3_PKS4_lLl42EEC2B8ne200100ES7_S4_
FNA:23,7740,_ZNSt3__116__deque_iteratorIN2cv3MatEPS2_RS2_PS3_lLl42EEC1B8ne200100ES5_S3_
FNA:23,7740,_ZNSt3__116__deque_iteratorIN2cv3MatEPS2_RS2_PS3_lLl42EEC2B8ne200100ES5_S3_
FNL:24,543
FNA:24,12,_ZNSt3__15dequeIN2cv3MatENS_9allocatorIS2_EEE19__deque_block_rangeC1B8ne200100EPS2_S7_
FNA:24,12,_ZNSt3__15dequeIN2cv3MatENS_9allocatorIS2_EEE19__deque_block_rangeC2B8ne200100EPS2_S7_
FNL:25,554
FNA:25,24,_ZNSt3__15dequeIN2cv3MatENS_9allocatorIS2_EEE13__deque_rangeC1B8ne200100ENS_16__deque_iteratorIS2_PS2_RS2_PS8_lLl42EEESB_
FNA:25,24,_ZNSt3__15dequeIN2cv3MatENS_9allocatorIS2_EEE13__deque_rangeC2B8ne200100ENS_16__deque_iteratorIS2_PS2_RS2_PS8_lLl42EEESB_
FNL:26,558
FNA:26,12,_ZNKSt3__15dequeIN2cv3MatENS_9allocatorIS2_EEE13__deque_range5beginB8ne200100Ev
FNL:27,560
FNA:27,12,_ZNKSt3__15dequeIN2cv3MatENS_9allocatorIS2_EEE13__deque_range3endB8ne200100Ev
FNL:28,561
FNA:28,12,_ZNKSt3__15dequeIN2cv3MatENS_9allocatorIS2_EEE13__deque_rangedeB8ne200100Ev
FNL:29,568
FNA:29,12,_ZNSt3__15dequeIN2cv3MatENS_9allocatorIS2_EEE13__deque_rangeppB8ne200100Ev
FNL:30,578
FNA:30,24,_ZNSt3__1eqB8ne200100ERKNS_5dequeIN2cv3MatENS_9allocatorIS2_EEE13__deque_rangeES8_
FNL:31,581
FNA:31,24,_ZNSt3__1neB8ne200100ERKNS_5dequeIN2cv3MatENS_9allocatorIS2_EEE13__deque_rangeES8_
FNL:32,587
FNA:32,12,_ZNSt3__15dequeIN2cv3MatENS_9allocatorIS2_EEE21_ConstructTransactionC1B8ne200100EPS5_RNS5_19__deque_block_rangeE
FNA:32,12,_ZNSt3__15dequeIN2cv3MatENS_9allocatorIS2_EEE21_ConstructTransactionC2B8ne200100EPS5_RNS5_19__deque_block_rangeE
FNL:33,590
FNA:33,12,_ZNSt3__15dequeIN2cv3MatENS_9allocatorIS2_EEE21_ConstructTransactionD1B8ne200100Ev
FNA:33,12,_ZNSt3__15dequeIN2cv3MatENS_9allocatorIS2_EEE21_ConstructTransactionD2B8ne200100Ev
FNL:34,608
FNA:34,781,_ZNSt3__15dequeIN2cv3MatENS_9allocatorIS2_EEEC1B8ne200100Ev
FNA:34,781,_ZNSt3__15dequeIN2cv3MatENS_9allocatorIS2_EEEC2B8ne200100Ev
FNL:35,613
FNA:35,793,_ZNSt3__15dequeIN2cv3MatENS_9allocatorIS2_EEED1B8ne200100Ev
FNA:35,793,_ZNSt3__15dequeIN2cv3MatENS_9allocatorIS2_EEED2B8ne200100Ev
FNL:36,712
FNA:36,5668,_ZNSt3__15dequeIN2cv3MatENS_9allocatorIS2_EEE7__allocB8ne200100Ev
FNL:37,713
FNA:37,12,_ZNKSt3__15dequeIN2cv3MatENS_9allocatorIS2_EEE7__allocB8ne200100Ev
FNL:38,717
FNA:38,3166,_ZNSt3__15dequeIN2cv3MatENS_9allocatorIS2_EEE5beginB8ne200100Ev
FNL:39,722
FNA:39,12,_ZNKSt3__15dequeIN2cv3MatENS_9allocatorIS2_EEE5beginB8ne200100Ev
FNL:40,727
FNA:40,4574,_ZNSt3__15dequeIN2cv3MatENS_9allocatorIS2_EEE3endB8ne200100Ev
FNL:41,733
FNA:41,12,_ZNKSt3__15dequeIN2cv3MatENS_9allocatorIS2_EEE3endB8ne200100Ev
FNL:42,750
FNA:42,6004,_ZNKSt3__15dequeIN2cv3MatENS_9allocatorIS2_EEE4sizeB8ne200100Ev
FNL:43,752
FNA:43,4562,_ZNSt3__15dequeIN2cv3MatENS_9allocatorIS2_EEE6__sizeB8ne200100Ev
FNL:44,753
FNA:44,6004,_ZNKSt3__15dequeIN2cv3MatENS_9allocatorIS2_EEE6__sizeB8ne200100Ev
FNL:45,761
FNA:45,10,_ZNKSt3__15dequeIN2cv3MatENS_9allocatorIS2_EEE5emptyB8ne200100Ev
FNL:46,897
FNA:46,12,_ZNSt3__15dequeIN2cv3MatENS_9allocatorIS2_EEE18__recommend_blocksB8ne200100Em
FNL:47,900
FNA:47,1396,_ZNKSt3__15dequeIN2cv3MatENS_9allocatorIS2_EEE10__capacityB8ne200100Ev
FNL:48,905
FNA:48,553,_ZNKSt3__15dequeIN2cv3MatENS_9allocatorIS2_EEE13__front_spareB8ne200100Ev
FNL:49,906
FNA:49,0,_ZNKSt3__15dequeIN2cv3MatENS_9allocatorIS2_EEE20__front_spare_blocksB8ne200100Ev
FNL:50,907
FNA:50,1396,_ZNKSt3__15dequeIN2cv3MatENS_9allocatorIS2_EEE12__back_spareB8ne200100Ev
FNF:51
FNH:46
DA:318,2792
DA:321,1408
DA:322,1408
DA:323,0
DA:324,0
DA:325,0
DA:326,1408
DA:350,12
DA:351,12
DA:352,12
DA:353,12
DA:354,12
DA:355,12
DA:356,12
DA:358,0
DA:359,0
DA:360,0
DA:361,0
DA:362,12
DA:363,12
DA:368,12
DA:369,12
DA:370,12
DA:371,12
DA:384,12
DA:385,12
DA:386,24
DA:387,12
DA:388,0
DA:389,12
DA:393,4598
DA:394,4598
DA:398,4574
DA:399,4574
DA:442,15528
DA:443,7764
DA:444,15528
DA:543,24
DA:544,12
DA:545,24
DA:554,48
DA:558,12
DA:560,12
DA:561,12
DA:562,12
DA:563,12
DA:565,0
DA:566,12
DA:568,12
DA:569,12
DA:570,12
DA:571,12
DA:572,0
DA:573,0
DA:575,12
DA:578,24
DA:579,24
DA:581,24
DA:582,24
DA:587,24
DA:588,24
DA:590,24
DA:608,2343
DA:609,1562
DA:610,781
DA:611,1562
DA:613,1586
DA:614,793
DA:615,793
DA:616,793
DA:617,793
DA:618,1346
DA:619,553
DA:620,1586
DA:712,5668
DA:713,12
DA:717,3166
DA:718,3166
DA:719,3166
DA:720,3166
DA:722,12
DA:723,12
DA:724,12
DA:725,12
DA:727,4574
DA:728,4574
DA:729,4574
DA:730,4574
DA:731,4574
DA:733,12
DA:734,12
DA:735,12
DA:736,12
DA:737,12
DA:750,6004
DA:752,4562
DA:753,6004
DA:761,10
DA:897,12
DA:898,12
DA:900,1396
DA:901,1396
DA:905,553
DA:906,0
DA:907,1396
DA:1023,3959
DA:1033,3959
DA:1035,3959
DA:1046,3959
DA:1055,1396
DA:1060,1396
DA:1062,0
DA:1068,0
DA:1078,12
DA:1079,12
DA:1080,12
DA:1083,541
DA:1098,541
DA:1162,0
DA:1163,0
DA:1164,0
DA:1165,0
DA:1166,0
DA:1167,0
DA:1168,0
DA:1170,0
DA:1171,0
DA:1312,48
DA:1313,12
DA:1314,12
DA:1315,12
DA:1316,24
DA:1317,12
DA:1318,12
DA:1319,24
DA:1571,0
DA:1572,0
DA:1573,0
DA:1574,0
DA:1576,0
DA:1577,0
DA:1578,0
DA:1579,0
DA:1595,1384
DA:1596,1384
DA:1597,1384
DA:1598,541
DA:1600,1384
DA:1601,1384
DA:1602,1384
DA:1603,1384
DA:1985,12
DA:1986,12
DA:1987,12
DA:1991,12
DA:1992,12
DA:1993,12
DA:1994,12
DA:1995,12
DA:1998,12
DA:1999,24
DA:2000,12
DA:2001,24
DA:2002,12
DA:2003,12
DA:2004,12
DA:2005,12
DA:2165,541
DA:2166,541
DA:2167,541
DA:2168,0
DA:2169,0
DA:2170,0
DA:2171,0
DA:2172,0
DA:2174,541
DA:2177,0
DA:2178,0
DA:2180,0
DA:2182,0
DA:2183,0
DA:2184,0
DA:2185,0
DA:2186,0
DA:2187,0
DA:2190,1082
DA:2191,541
DA:2194,541
DA:2195,541
DA:2196,541
DA:2198,541
DA:2199,0
DA:2200,541
DA:2201,541
DA:2202,541
DA:2203,541
DA:2204,541
DA:2205,541
DA:2206,541
DA:2211,12
DA:2212,12
DA:2213,12
DA:2215,12
DA:2216,12
DA:2217,12
DA:2219,12
DA:2220,0
DA:2221,0
DA:2222,0
DA:2223,0
DA:2224,0
DA:2225,0
DA:2226,0
DA:2228,24
DA:2229,12
DA:2232,0
DA:2233,0
DA:2234,0
DA:2235,0
DA:2236,0
DA:2237,0
DA:2238,0
DA:2239,0
DA:2240,0
DA:2241,0
DA:2243,0
DA:2244,0
DA:2245,0
DA:2246,0
DA:2247,0
DA:2248,0
DA:2249,0
DA:2252,12
DA:2253,24
DA:2254,12
DA:2255,12
DA:2256,12
DA:2260,24
DA:2261,12
DA:2263,12
DA:2264,12
DA:2266,12
DA:2267,0
DA:2268,0
DA:2269,0
DA:2270,0
DA:2271,0
DA:2273,12
DA:2274,0
DA:2275,0
DA:2276,0
DA:2277,12
DA:2278,0
DA:2279,12
DA:2280,12
DA:2281,12
DA:2282,12
DA:2283,12
DA:2284,12
DA:2285,12
DA:2288,0
DA:2290,0
DA:2291,0
DA:2292,0
DA:2293,0
DA:2294,0
DA:2295,0
DA:2296,0
DA:2297,0
DA:2298,0
DA:2299,0
DA:2522,3166
DA:2523,3166
DA:2524,3166
DA:2525,4562
DA:2526,1396
DA:2527,3166
DA:2528,3166
DA:2529,0
DA:2530,0
DA:2532,3166
DA:2534,2239
DA:2535,2239
DA:2537,0
DA:2538,0
DA:2540,3166
DA:2541,3166
LF:287
LH:193
end_of_record
TN:
SF:/Library/Developer/CommandLineTools/SDKs/MacOSX.sdk/usr/include/c++/v1/initializer_list
FNL:0,81
FNA:0,5,_ZNKSt16initializer_listIN14StabilizerCore16StabilizerParamsEE4sizeB8ne200100Ev
FNA:0,55,_ZNKSt16initializer_listINSt3__112basic_stringIcNS0_11char_traitsIcEENS0_9allocatorIcEEEEE4sizeB8ne200100Ev
FNA:0,5,_ZNKSt16initializer_listINSt3__14pairIiiEEE4sizeB8ne200100Ev
FNA:0,5,_ZNKSt16initializer_listINSt3__16vectorIN2cv3MatENS0_9allocatorIS3_EEEEE4sizeB8ne200100Ev
FNA:0,5,_ZNKSt16initializer_listIP14StabilizerCoreE4sizeB8ne200100Ev
FNA:0,10,_ZNKSt16initializer_listIiE4sizeB8ne200100Ev
FNL:1,83
FNA:1,5,_ZNKSt16initializer_listIN14StabilizerCore16StabilizerParamsEE5beginB8ne200100Ev
FNA:1,55,_ZNKSt16initializer_listINSt3__112basic_stringIcNS0_11char_traitsIcEENS0_9allocatorIcEEEEE5beginB8ne200100Ev
FNA:1,5,_ZNKSt16initializer_listINSt3__14pairIiiEEE5beginB8ne200100Ev
FNA:1,5,_ZNKSt16initializer_listINSt3__16vectorIN2cv3MatENS0_9allocatorIS3_EEEEE5beginB8ne200100Ev
FNA:1,5,_ZNKSt16initializer_listIP14StabilizerCoreE5beginB8ne200100Ev
FNA:1,10,_ZNKSt16initializer_listIiE5beginB8ne200100Ev
FNL:2,85
FNA:2,5,_ZNKSt16initializer_listIN14StabilizerCore16StabilizerParamsEE3endB8ne200100Ev
FNA:2,55,_ZNKSt16initializer_listINSt3__112basic_stringIcNS0_11char_traitsIcEENS0_9allocatorIcEEEEE3endB8ne200100Ev
FNA:2,5,_ZNKSt16initializer_listINSt3__14pairIiiEEE3endB8ne200100Ev
FNA:2,5,_ZNKSt16initializer_listINSt3__16vectorIN2cv3MatENS0_9allocatorIS3_EEEEE3endB8ne200100Ev
FNA:2,5,_ZNKSt16initializer_listIP14StabilizerCoreE3endB8ne200100Ev
FNA:2,10,_ZNKSt16initializer_listIiE3endB8ne200100Ev
FNF:3
FNH:3
DA:81,85
DA:83,85
DA:85,85
LF:3
LH:3
end_of_record
TN:
SF:/Library/Developer/CommandLineTools/SDKs/MacOSX.sdk/usr/include/c++/v1/ios
FNL:0,364
FNA:0,0,_ZNSt3__18ios_baseC2B8ne200100Ev
FNL:1,374
FNA:1,72772,_ZNKSt3__18ios_base5rdbufB8ne200100Ev
FNL:2,462
FNA:2,72772,_ZNKSt3__18ios_base5flagsB8ne200100Ev
FNL:3,487
FNA:3,0,_ZNKSt3__18ios_base9precisionB8ne200100Ev
FNL:4,489
FNA:4,0,_ZNSt3__18ios_base9precisionB8ne200100El
FNL:5,497
FNA:5,72772,_ZNKSt3__18ios_base5widthB8ne200100Ev
FNL:6,499
FNA:6,72772,_ZNSt3__18ios_base5widthB8ne200100El
FNL:7,509
FNA:7,0,_ZNSt3__18ios_base8setstateB8ne200100Ej
FNL:8,549
FNA:8,0,_ZNSt3__118_SentinelValueFillINS_11char_traitsIcEEE6__initB8ne200100Ev
FNL:9,550
FNA:9,34,_ZNSt3__118_SentinelValueFillINS_11char_traitsIcEEEaSB8ne200100Ei
FNL:10,554
FNA:10,72772,_ZNKSt3__118_SentinelValueFillINS_11char_traitsIcEEE8__is_setB8ne200100Ev
FNL:11,555
FNA:11,72772,_ZNKSt3__118_SentinelValueFillINS_11char_traitsIcEEE5__getB8ne200100Ev
FNL:12,586
FNA:12,0,_ZNSt3__19basic_iosIcNS_11char_traitsIcEEE8setstateB8ne200100Ej
FNL:13,617
FNA:13,0,_ZNSt3__19basic_iosIcNS_11char_traitsIcEEEC2B8ne200100Ev
FNL:14,648
FNA:14,0,_ZNSt3__19basic_iosIcNS_11char_traitsIcEEE4initB8ne200100EPNS_15basic_streambufIcS2_EE
FNL:15,668
FNA:15,72772,_ZNKSt3__19basic_iosIcNS_11char_traitsIcEEE5rdbufB8ne200100Ev
FNL:16,695
FNA:16,72786,_ZNKSt3__19basic_iosIcNS_11char_traitsIcEEE5widenB8ne200100Ec
FNL:17,700
FNA:17,72772,_ZNKSt3__19basic_iosIcNS_11char_traitsIcEEE4fillB8ne200100Ev
FNF:18
FNH:10
DA:364,0
DA:371,0
DA:374,72772
DA:462,72772
DA:487,0
DA:489,0
DA:490,0
DA:491,0
DA:492,0
DA:493,0
DA:497,72772
DA:499,72772
DA:500,72772
DA:501,72772
DA:502,145544
DA:503,72772
DA:509,0
DA:549,0
DA:550,34
DA:551,34
DA:552,34
DA:554,72772
DA:555,72772
DA:586,0
DA:617,0
DA:620,0
DA:648,0
DA:649,0
DA:650,0
DA:651,0
DA:652,0
DA:668,72772
DA:669,72772
DA:695,72786
DA:696,72786
DA:697,0
DA:700,72772
DA:701,72772
DA:702,34
DA:703,72772
LF:40
LH:21
end_of_record
TN:
SF:/Library/Developer/CommandLineTools/SDKs/MacOSX.sdk/usr/include/c++/v1/istream
FNL:0,1182
FNA:0,0,_ZNSt3__114basic_iostreamIcNS_11char_traitsIcEEEC2B8ne200100EPNS_15basic_streambufIcS2_EE
FNL:1,209
FNA:1,0,_ZNSt3__113basic_istreamIcNS_11char_traitsIcEEEC2B8ne200100EPNS_15basic_streambufIcS2_EE
FNF:2
FNH:0
DA:209,0
DA:210,0
DA:211,0
DA:212,0
DA:1182,0
DA:1183,0
LF:6
LH:0
end_of_record
TN:
SF:/Library/Developer/CommandLineTools/SDKs/MacOSX.sdk/usr/include/c++/v1/limits
FNL:0,205
FNA:0,182118,_ZNSt3__123__libcpp_numeric_limitsIlLb1EE3maxB8ne200100Ev
FNA:0,2095,_ZNSt3__123__libcpp_numeric_limitsImLb1EE3maxB8ne200100Ev
FNA:0,0,_ZNSt3__123__libcpp_numeric_limitsIxLb1EE3maxB8ne200100Ev
FNL:1,472
FNA:1,182118,_ZNSt3__114numeric_limitsIlE3maxB8ne200100Ev
FNA:1,2095,_ZNSt3__114numeric_limitsImE3maxB8ne200100Ev
FNA:1,0,_ZNSt3__114numeric_limitsIxE3maxB8ne200100Ev
FNF:2
FNH:2
DA:205,184213
DA:472,184213
LF:2
LH:2
end_of_record
TN:
SF:/Library/Developer/CommandLineTools/SDKs/MacOSX.sdk/usr/include/c++/v1/sstream
FNL:0,1157
FNA:0,0,_ZNSt3__118basic_stringstreamIcNS_11char_traitsIcEENS_9allocatorIcEEEC1B8ne200100Ev
FNL:1,1235
FNA:1,0,_ZNKSt3__118basic_stringstreamIcNS_11char_traitsIcEENS_9allocatorIcEEE3strB8ne200100Ev
FNL:2,1279
FNA:2,0,_ZNSt3__115basic_stringbufIcNS_11char_traitsIcEENS_9allocatorIcEEED1Ev
FNA:2,0,_ZNSt3__115basic_stringbufIcNS_11char_traitsIcEENS_9allocatorIcEEED2Ev
FNL:3,1280
FNA:3,0,_ZNSt3__118basic_stringstreamIcNS_11char_traitsIcEENS_9allocatorIcEEED1Ev
FNA:3,0,_ZNSt3__118basic_stringstreamIcNS_11char_traitsIcEENS_9allocatorIcEEED2Ev
FNL:4,370
FNA:4,0,_ZNSt3__115basic_stringbufIcNS_11char_traitsIcEENS_9allocatorIcEEEC1B8ne200100Ej
FNA:4,0,_ZNSt3__115basic_stringbufIcNS_11char_traitsIcEENS_9allocatorIcEEEC2B8ne200100Ej
FNL:5,714
FNA:5,0,_ZNSt3__115basic_stringbufIcNS_11char_traitsIcEENS_9allocatorIcEEE15__init_buf_ptrsB8ne200100Ev
FNF:6
FNH:0
DA:370,0
DA:372,0
DA:373,0
DA:714,0
DA:715,0
DA:716,0
DA:717,0
DA:718,0
DA:719,0
DA:720,0
DA:721,0
DA:722,0
DA:723,0
DA:724,0
DA:725,0
DA:726,0
DA:727,0
DA:728,0
DA:729,0
DA:731,0
DA:732,0
DA:733,0
DA:734,0
DA:735,0
DA:1157,0
DA:1158,0
DA:1235,0
LF:27
LH:0
end_of_record
TN:
SF:/Library/Developer/CommandLineTools/SDKs/MacOSX.sdk/usr/include/c++/v1/stdexcept
FNL:0,155
FNA:0,0,_ZNSt12length_errorC1B8ne200100EPKc
FNA:0,0,_ZNSt12length_errorC2B8ne200100EPKc
FNL:1,166
FNA:1,0,_ZNSt12out_of_rangeC1B8ne200100EPKc
FNA:1,0,_ZNSt12out_of_rangeC2B8ne200100EPKc
FNL:2,242
FNA:2,0,_ZNSt3__120__throw_length_errorB8ne200100EPKc
FNL:3,254
FNA:3,0,_ZNSt3__120__throw_out_of_rangeB8ne200100EPKc
FNF:4
FNH:0
DA:155,0
DA:166,0
DA:242,0
DA:244,0
DA:252,0
DA:254,0
DA:256,0
DA:264,0
LF:8
LH:0
end_of_record
TN:
SF:/Library/Developer/CommandLineTools/SDKs/MacOSX.sdk/usr/include/c++/v1/streambuf
FNL:0,149
FNA:0,0,_ZNSt3__115basic_streambufIcNS_11char_traitsIcEEED2Ev
FNL:1,227
FNA:1,72772,_ZNSt3__115basic_streambufIcNS_11char_traitsIcEEE5sputnB8ne200100EPKcl
FNL:2,232
FNA:2,0,_ZNSt3__115basic_streambufIcNS_11char_traitsIcEEEC2Ev
FNL:3,270
FNA:3,0,_ZNSt3__115basic_streambufIcNS_11char_traitsIcEEE4setgB8ne200100EPcS4_S4_
FNL:4,284
FNA:4,0,_ZNSt3__115basic_streambufIcNS_11char_traitsIcEEE5pbumpB8ne200100Ei
FNL:5,288
FNA:5,0,_ZNSt3__115basic_streambufIcNS_11char_traitsIcEEE4setpB8ne200100EPcS4_
FNF:6
FNH:1
DA:149,0
DA:227,72772
DA:228,72772
DA:232,0
DA:270,0
DA:274,0
DA:275,0
DA:276,0
DA:277,0
DA:284,0
DA:288,0
DA:290,0
DA:291,0
DA:292,0
DA:367,0
DA:368,0
DA:369,0
DA:370,0
DA:371,0
DA:372,0
LF:20
LH:2
end_of_record
TN:
SF:/Library/Developer/CommandLineTools/SDKs/MacOSX.sdk/usr/include/c++/v1/string
FNL:0,1006
FNA:0,846,_ZNSt3__112basic_stringIcNS_11char_traitsIcEENS_9allocatorIcEEEC1B8ne200100Ev
FNA:0,846,_ZNSt3__112basic_stringIcNS_11char_traitsIcEENS_9allocatorIcEEEC2B8ne200100Ev
FNL:1,1032
FNA:1,325,_ZNSt3__112basic_stringIcNS_11char_traitsIcEENS_9allocatorIcEEEC1ERKS5_
FNA:1,325,_ZNSt3__112basic_stringIcNS_11char_traitsIcEENS_9allocatorIcEEEC2ERKS5_
FNL:2,1052
FNA:2,1068,_ZNSt3__112basic_stringIcNS_11char_traitsIcEENS_9allocatorIcEEEC1B8ne200100EOS5_
FNA:2,1068,_ZNSt3__112basic_stringIcNS_11char_traitsIcEENS_9allocatorIcEEEC2B8ne200100EOS5_
FNL:3,1061
FNA:3,1068,_ZZNSt3__112basic_stringIcNS_11char_traitsIcEENS_9allocatorIcEEEC1B8ne200100EOS5_ENKUlRS5_E_clES7_
FNL:4,1092
FNA:4,3429,_ZNSt3__112basic_stringIcNS_11char_traitsIcEENS_9allocatorIcEEEC1B8ne200100ILi0EEEPKc
FNA:4,3429,_ZNSt3__112basic_stringIcNS_11char_traitsIcEENS_9allocatorIcEEEC2B8ne200100ILi0EEEPKc
FNL:5,1120
FNA:5,0,_ZNSt3__112basic_stringIcNS_11char_traitsIcEENS_9allocatorIcEEEC1B8ne200100Emc
FNA:5,0,_ZNSt3__112basic_stringIcNS_11char_traitsIcEENS_9allocatorIcEEEC2B8ne200100Emc
FNL:6,1236
FNA:6,5698,_ZNSt3__112basic_stringIcNS_11char_traitsIcEENS_9allocatorIcEEED1Ev
FNA:6,5698,_ZNSt3__112basic_stringIcNS_11char_traitsIcEENS_9allocatorIcEEED2Ev
FNL:7,1260
FNA:7,15,_ZNSt3__112basic_stringIcNS_11char_traitsIcEENS_9allocatorIcEEEaSB8ne200100EOS5_
FNL:8,1269
FNA:8,1430,_ZNSt3__112basic_stringIcNS_11char_traitsIcEENS_9allocatorIcEEEaSB8ne200100EPKc
FNL:9,1310
FNA:9,143455,_ZNKSt3__112basic_stringIcNS_11char_traitsIcEENS_9allocatorIcEEE4sizeB8ne200100Ev
FNL:10,1315
FNA:10,2095,_ZNKSt3__112basic_stringIcNS_11char_traitsIcEENS_9allocatorIcEEE8max_sizeB8ne200100Ev
FNL:11,1325
FNA:11,0,_ZNKSt3__112basic_stringIcNS_11char_traitsIcEENS_9allocatorIcEEE8capacityB8ne200100Ev
FNL:12,1330
FNA:12,0,_ZNSt3__112basic_stringIcNS_11char_traitsIcEENS_9allocatorIcEEE6resizeB8ne200100Em
FNL:13,1373
FNA:13,0,_ZNSt3__112basic_stringIcNS_11char_traitsIcEENS_9allocatorIcEEEpLB8ne200100ERKS5_
FNL:14,1387
FNA:14,0,_ZNSt3__112basic_stringIcNS_11char_traitsIcEENS_9allocatorIcEEEpLB8ne200100EPKc
FNL:15,1402
FNA:15,15,_ZNSt3__112basic_stringIcNS_11char_traitsIcEENS_9allocatorIcEEE6appendB8ne200100ERKS5_
FNL:16,1729
FNA:16,0,_ZNKSt3__112basic_stringIcNS_11char_traitsIcEENS_9allocatorIcEEE5c_strB8ne200100Ev
FNL:17,1730
FNA:17,15,_ZNKSt3__112basic_stringIcNS_11char_traitsIcEENS_9allocatorIcEEE4dataB8ne200100Ev
FNL:18,1734
FNA:18,0,_ZNSt3__112basic_stringIcNS_11char_traitsIcEENS_9allocatorIcEEE4dataB8ne200100Ev
FNL:19,1898
FNA:19,151674,_ZNKSt3__112basic_stringIcNS_11char_traitsIcEENS_9allocatorIcEEE9__is_longB8ne200100Ev
FNL:20,1905
FNA:20,1183,_ZNSt3__112basic_stringIcNS_11char_traitsIcEENS_9allocatorIcEEE16__begin_lifetimeB8ne200100EPcm
FNL:21,1917
FNA:21,145530,_ZNSt3__112basic_stringIcNS_11char_traitsIcEENS_9allocatorIcEEE13__fits_in_ssoB8ne200100Em
FNL:22,1976
FNA:22,937,_ZNSt3__112basic_stringIcNS_11char_traitsIcEENS_9allocatorIcEEE16__set_short_sizeB8ne200100Em
FNL:23,1983
FNA:23,143765,_ZNKSt3__112basic_stringIcNS_11char_traitsIcEENS_9allocatorIcEEE16__get_short_sizeB8ne200100Ev
FNL:24,1988
FNA:24,1183,_ZNSt3__112basic_stringIcNS_11char_traitsIcEENS_9allocatorIcEEE15__set_long_sizeB8ne200100Em
FNL:25,1992
FNA:25,15,_ZNKSt3__112basic_stringIcNS_11char_traitsIcEENS_9allocatorIcEEE15__get_long_sizeB8ne200100Ev
FNL:26,2004
FNA:26,1183,_ZNSt3__112basic_stringIcNS_11char_traitsIcEENS_9allocatorIcEEE14__set_long_capB8ne200100Em
FNL:27,2010
FNA:27,54,_ZNKSt3__112basic_stringIcNS_11char_traitsIcEENS_9allocatorIcEEE14__get_long_capB8ne200100Ev
FNL:28,2015
FNA:28,1183,_ZNSt3__112basic_stringIcNS_11char_traitsIcEENS_9allocatorIcEEE18__set_long_pointerB8ne200100EPc
FNL:29,2019
FNA:29,54,_ZNSt3__112basic_stringIcNS_11char_traitsIcEENS_9allocatorIcEEE18__get_long_pointerB8ne200100Ev
FNL:30,2024
FNA:30,0,_ZNKSt3__112basic_stringIcNS_11char_traitsIcEENS_9allocatorIcEEE18__get_long_pointerB8ne200100Ev
FNL:31,2030
FNA:31,937,_ZNSt3__112basic_stringIcNS_11char_traitsIcEENS_9allocatorIcEEE19__get_short_pointerB8ne200100Ev
FNL:32,2035
FNA:32,15,_ZNKSt3__112basic_stringIcNS_11char_traitsIcEENS_9allocatorIcEEE19__get_short_pointerB8ne200100Ev
FNL:33,2039
FNA:33,0,_ZNSt3__112basic_stringIcNS_11char_traitsIcEENS_9allocatorIcEEE13__get_pointerB8ne200100Ev
FNL:34,2042
FNA:34,15,_ZNKSt3__112basic_stringIcNS_11char_traitsIcEENS_9allocatorIcEEE13__get_pointerB8ne200100Ev
FNL:35,2061
FNA:35,4359,_ZNKSt3__112basic_stringIcNS_11char_traitsIcEENS_9allocatorIcEEE14__annotate_newB8ne200100Em
FNL:36,2069
FNA:36,5713,_ZNKSt3__112basic_stringIcNS_11char_traitsIcEENS_9allocatorIcEEE17__annotate_deleteB8ne200100Ev
FNL:37,2084
FNA:37,0,_ZNKSt3__112basic_stringIcNS_11char_traitsIcEENS_9allocatorIcEEE17__annotate_shrinkB8ne200100Em
FNL:38,2093
FNA:38,1183,_ZNSt3__112basic_stringIcNS_11char_traitsIcEENS_9allocatorIcEEE10__align_itB8ne200100ILm8EEEmm
FNL:39,2097
FNA:39,1183,_ZNSt3__112basic_stringIcNS_11char_traitsIcEENS_9allocatorIcEEE11__recommendB8ne200100Em
FNL:40,2222
FNA:40,15,_ZNSt3__112basic_stringIcNS_11char_traitsIcEENS_9allocatorIcEEE19__move_assign_allocB8ne200100ERS5_
FNL:41,2229
FNA:41,15,_ZNSt3__112basic_stringIcNS_11char_traitsIcEENS_9allocatorIcEEE19__move_assign_allocB8ne200100ERS5_NS_17integral_constantIbLb1EEE
FNL:42,2270
FNA:42,0,_ZNSt3__112basic_stringIcNS_11char_traitsIcEENS_9allocatorIcEEE20__throw_length_errorB8ne200100Ev
FNL:43,2274
FNA:43,0,_ZNSt3__112basic_stringIcNS_11char_traitsIcEENS_9allocatorIcEEE20__throw_out_of_rangeB8ne200100Ev
FNL:44,2368
FNA:44,2016,_ZNSt3__112basic_stringIcNS_11char_traitsIcEENS_9allocatorIcEEE6__initEPKcm
FNL:45,2392
FNA:45,89,_ZNSt3__112basic_stringIcNS_11char_traitsIcEENS_9allocatorIcEEE25__init_copy_ctor_externalEPKcm
FNL:46,2415
FNA:46,0,_ZNSt3__112basic_stringIcNS_11char_traitsIcEENS_9allocatorIcEEE6__initEmc
FNL:47,2726
FNA:47,15,_ZNSt3__112basic_stringIcNS_11char_traitsIcEENS_9allocatorIcEEE13__move_assignB8ne200100ERS5_NS_17integral_constantIbLb1EEE
FNL:48,3520
FNA:48,0,_ZNKSt3__112basic_stringIcNS_11char_traitsIcEENS_9allocatorIcEEE4findB8ne200100EPKcm
FNL:49,3757
FNA:49,0,_ZNKSt3__112basic_stringIcNS_11char_traitsIcEENS_9allocatorIcEEE7compareEmmPKcm
FNL:50,3858
FNA:50,143425,_ZNSt3__1eqB8ne200100IcNS_11char_traitsIcEENS_9allocatorIcEEEEbRKNS_12basic_stringIT_T0_T1_EEPKS6_
FNL:51,4093
FNA:51,15,_ZNSt3__1plB8ne200100IcNS_11char_traitsIcEENS_9allocatorIcEEEENS_12basic_stringIT_T0_T1_EEOS9_SA_
FNL:52,4099
FNA:52,15,_ZNSt3__1plB8ne200100IcNS_11char_traitsIcEENS_9allocatorIcEEEENS_12basic_stringIT_T0_T1_EEPKS6_OS9_
FNL:53,4112
FNA:53,30,_ZNSt3__1plB8ne200100IcNS_11char_traitsIcEENS_9allocatorIcEEEENS_12basic_stringIT_T0_T1_EEOS9_PKS6_
FNF:54
FNH:39
DA:1006,2538
DA:1011,846
DA:1013,846
DA:1014,846
DA:1015,1692
DA:1032,975
DA:1033,650
DA:1034,325
DA:1035,325
DA:1036,325
DA:1037,325
DA:1038,0
DA:1039,650
DA:1052,2136
DA:1061,3204
DA:1062,1068
DA:1063,0
DA:1064,1068
DA:1065,1068
DA:1066,2136
DA:1067,1068
DA:1068,1068
DA:1069,1068
DA:1070,0
DA:1071,2136
DA:1092,6858
DA:1094,3429
DA:1095,6858
DA:1120,0
DA:1236,11396
DA:1237,5698
DA:1238,5698
DA:1239,49
DA:1240,11396
DA:1260,15
DA:1261,15
DA:1262,15
DA:1269,1430
DA:1270,1430
DA:1310,143455
DA:1311,143455
DA:1315,2095
DA:1316,2095
DA:1317,2095
DA:1318,0
DA:1320,2095
DA:1321,2095
DA:1322,2095
DA:1323,2095
DA:1325,0
DA:1326,0
DA:1330,0
DA:1373,0
DA:1374,0
DA:1387,0
DA:1388,0
DA:1402,15
DA:1403,15
DA:1729,0
DA:1730,15
DA:1731,15
DA:1734,0
DA:1735,0
DA:1898,151674
DA:1902,151674
DA:1905,1183
DA:1915,1183
DA:1917,145530
DA:1976,937
DA:1978,937
DA:1979,937
DA:1980,937
DA:1983,143765
DA:1985,143765
DA:1988,1183
DA:1989,1183
DA:1990,1183
DA:1992,15
DA:1994,15
DA:2004,1183
DA:2006,1183
DA:2007,1183
DA:2008,1183
DA:2010,54
DA:2012,54
DA:2015,1183
DA:2016,1183
DA:2017,1183
DA:2019,54
DA:2021,54
DA:2024,0
DA:2026,0
DA:2030,937
DA:2031,937
DA:2035,15
DA:2036,15
DA:2039,0
DA:2040,0
DA:2042,15
DA:2043,15
DA:2061,4359
DA:2067,4359
DA:2069,5713
DA:2074,5713
DA:2084,0
DA:2090,0
DA:2093,1183
DA:2094,1183
DA:2097,1183
DA:2098,1183
DA:2099,0
DA:2101,1183
DA:2102,1183
DA:2103,1183
DA:2104,0
DA:2107,1183
DA:2108,1183
DA:2222,15
DA:2225,15
DA:2226,15
DA:2227,15
DA:2229,15
DA:2231,15
DA:2232,15
DA:2270,0
DA:2271,0
DA:2274,0
DA:2275,0
DA:2368,2016
DA:2371,2016
DA:2372,0
DA:2373,2016
DA:2374,2016
DA:2375,912
DA:2376,912
DA:2377,912
DA:2378,1104
DA:2379,1104
DA:2380,1104
DA:2381,1104
DA:2382,1104
DA:2383,1104
DA:2384,1104
DA:2385,2016
DA:2386,2016
DA:2387,2016
DA:2388,2016
DA:2392,89
DA:2396,89
DA:2397,89
DA:2398,10
DA:2399,10
DA:2400,10
DA:2401,79
DA:2402,0
DA:2403,79
DA:2404,79
DA:2405,79
DA:2406,79
DA:2407,79
DA:2408,79
DA:2409,79
DA:2410,89
DA:2411,89
DA:2412,89
DA:2415,0
DA:2419,0
DA:2420,0
DA:2421,0
DA:2422,0
DA:2423,0
DA:2424,0
DA:2425,0
DA:2426,0
DA:2427,0
DA:2428,0
DA:2429,0
DA:2430,0
DA:2431,0
DA:2432,0
DA:2433,0
DA:2434,0
DA:2435,0
DA:2436,0
DA:2726,15
DA:2733,15
DA:2734,15
DA:2735,5
DA:2743,5
DA:2744,15
DA:2745,15
DA:2747,15
DA:2748,15
DA:2749,15
DA:2750,15
DA:2752,15
DA:2753,0
DA:2757,15
DA:2766,15
DA:2768,0
DA:2769,15
DA:3520,0
DA:3522,0
DA:3523,0
DA:3757,0
DA:3760,0
DA:3761,0
DA:3762,0
DA:3763,0
DA:3764,0
DA:3765,0
DA:3766,0
DA:3767,0
DA:3768,0
DA:3769,0
DA:3770,0
DA:3771,0
DA:3772,0
DA:3858,143425
DA:3863,143425
DA:3864,143425
DA:3865,0
DA:3866,0
DA:3867,0
DA:3868,143425
DA:3869,102250
DA:3870,41175
DA:3871,143425
DA:4093,15
DA:4094,15
DA:4099,15
DA:4100,15
DA:4112,30
DA:4113,30
LF:234
LH:164
end_of_record
TN:
SF:/Library/Developer/CommandLineTools/SDKs/MacOSX.sdk/usr/include/c++/v1/typeinfo
FNL:0,232
FNA:0,0,_ZNSt27__type_info_implementations30__non_unique_arm_rtti_bit_impl21__type_name_to_stringB8ne200100Em
FNL:1,310
FNA:1,0,_ZNKSt9type_info4nameB8ne200100Ev
FNF:2
FNH:0
DA:232,0
DA:233,0
DA:310,0
LF:3
LH:0
end_of_record
TN:
SF:/Users/azumag/work/obs-stabilizer/src/core/feature_detection.cpp
FNL:0,14,20
FNA:0,55,_ZN16FeatureDetection15FeatureDetectorC1Ev
FNA:0,55,_ZN16FeatureDetection15FeatureDetectorC2Ev
FNL:1,22,23
FNA:1,55,_ZN16FeatureDetection15FeatureDetectorD1Ev
FNA:1,55,_ZN16FeatureDetection15FeatureDetectorD2Ev
FNL:2,25,26
FNA:2,5,_ZNK16FeatureDetection15FeatureDetector12is_availableEv
FNL:3,29,31
FNA:3,15,_ZN16FeatureDetection15FeatureDetector17set_quality_levelEf
FNL:4,33,35
FNA:4,15,_ZN16FeatureDetection15FeatureDetector16set_min_distanceEf
FNL:5,37,39
FNA:5,60,_ZN16FeatureDetection15FeatureDetector14set_block_sizeEi
FNL:6,41,43
FNA:6,60,_ZN16FeatureDetection15FeatureDetector9set_ksizeEi
FNL:7,45,58
FNA:7,95,_ZN16FeatureDetection15FeatureDetector15detect_featuresERKN2cv3MatERNSt3__16vectorINS1_6Point_IfEENS5_9allocatorIS8_EEEE
FNF:8
FNH:8
DA:14,110
DA:15,55
DA:16,55
DA:17,55
DA:18,55
DA:19,55
DA:20,110
DA:22,110
DA:23,110
DA:25,5
DA:26,5
DA:29,15
DA:30,15
DA:31,15
DA:33,15
DA:34,15
DA:35,15
DA:37,60
DA:38,60
DA:39,60
DA:41,60
DA:42,60
DA:43,60
DA:45,95
DA:46,95
DA:47,95
DA:49,190
DA:50,95
DA:51,95
DA:52,95
DA:53,95
DA:55,95
DA:57,95
DA:58,95
LF:34
LH:34
end_of_record
TN:
SF:/Users/azumag/work/obs-stabilizer/src/core/frame_utils.hpp
FNL:0,104,135
FNA:0,7020,_ZN11FRAME_UTILS10Validation15validate_cv_matERKN2cv3MatE
FNL:1,165,185
FNA:1,66200,_ZN11FRAME_UTILS15ColorConversion20convert_to_grayscaleERKN2cv3MatE
FNF:2
FNH:2
DA:104,7020
DA:105,7020
DA:106,15
DA:112,7005
DA:113,0
DA:119,7005
DA:120,7005
DA:122,0
DA:128,7005
DA:129,7005
DA:131,5
DA:134,7000
DA:135,7020
DA:165,66200
DA:166,66200
DA:167,5
DA:170,66195
DA:171,66195
DA:173,66190
DA:174,66190
DA:176,0
DA:177,0
DA:179,5
DA:180,5
DA:182,0
DA:184,66195
DA:185,66200
LF:27
LH:22
end_of_record
TN:
SF:/Users/azumag/work/obs-stabilizer/src/core/logging.hpp
FNL:0,15,22
FNA:0,20,_ZL14core_log_errorPKcz
FNL:1,24,31
FNA:1,59191,_ZL16core_log_warningPKcz
FNL:2,33,40
FNA:2,11907,_ZL13core_log_infoPKcz
FNL:3,42,49
FNA:3,1634,_ZL14core_log_debugPKcz
FNL:4,78,80
FNA:4,0,_ZN17StabilizerLogging13log_exceptionEPKcRKSt9exception
FNL:5,86,88
FNA:5,0,_ZN17StabilizerLogging21log_unknown_exceptionEPKc
FNL:6,95,98
FNA:6,0,_ZN17StabilizerLogging20log_opencv_exceptionEPKcRKN2cv9ExceptionE
FNF:7
FNH:4
DA:15,20
DA:16,20
DA:17,20
DA:18,20
DA:19,20
DA:20,20
DA:21,20
DA:22,20
DA:24,59191
DA:25,59191
DA:26,59191
DA:27,59191
DA:28,59191
DA:29,59191
DA:30,59191
DA:31,59191
DA:33,11907
DA:34,11907
DA:35,11907
DA:36,11907
DA:37,11907
DA:38,11907
DA:39,11907
DA:40,11907
DA:42,1634
DA:43,1634
DA:44,1634
DA:45,1634
DA:46,1634
DA:47,1634
DA:48,1634
DA:49,1634
DA:78,0
DA:79,0
DA:80,0
DA:86,0
DA:87,0
DA:88,0
DA:95,0
DA:96,0
DA:98,0
LF:41
LH:32
end_of_record
TN:
SF:/Users/azumag/work/obs-stabilizer/src/core/parameter_validation.hpp
FNL:0,28,95
FNA:0,1528,_ZN10VALIDATION19validate_parametersERKN14StabilizerCore16StabilizerParamsE
FNF:1
FNH:1
DA:28,1528
DA:31,1528
DA:34,1528
DA:39,1528
DA:44,1528
DA:49,1528
DA:54,1528
DA:59,1528
DA:63,1528
DA:64,5
DA:65,5
DA:68,1528
DA:73,3056
DA:74,1528
DA:75,1528
DA:78,3056
DA:79,1528
DA:80,1528
DA:81,3056
DA:82,1528
DA:83,1528
DA:86,1528
DA:87,0
DA:88,0
DA:91,3056
DA:92,1528
DA:93,1528
DA:95,1528
LF:28
LH:26
end_of_record
TN:
SF:/Users/azumag/work/obs-stabilizer/src/core/stabilizer_core.cpp
FNL:0,180,212
FNA:0,11907,_ZN14StabilizerCore15detect_featuresERKN2cv3MatERNSt3__16vectorINS0_6Point_IfEENS4_9allocatorIS7_EEEE
FNL:1,214,279
FNA:1,57761,_ZN14StabilizerCore14track_featuresERKN2cv3MatES3_RNSt3__16vectorINS0_6Point_IfEENS4_9allocatorIS7_EEEESB_Rf
FNL:2,26,65
FNA:2,1488,_ZN14StabilizerCore10initializeEjjRKNS_16StabilizerParamsE
FNL:3,281,321
FNA:3,0,_ZN14StabilizerCore18estimate_transformERKNSt3__16vectorIN2cv6Point_IfEENS0_9allocatorIS4_EEEERS7_
FNL:4,323,324
FNA:4,0,_ZN14StabilizerCore17smooth_transformsEv
FNL:5,327,351
FNA:5,0,_ZN14StabilizerCore27smooth_transforms_optimizedEv
FNL:6,353,358
FNA:6,59155,_ZN14StabilizerCore14update_metricsERKNSt3__16chrono10time_pointINS1_12steady_clockENS1_8durationIxNS0_5ratioILl1ELl1000000000EEEEEEE
FNL:7,360,378
FNA:7,0,_ZN14StabilizerCore15apply_transformERKN2cv3MatES3_
FNL:8,380,408
FNA:8,35,_ZN14StabilizerCore21detect_content_boundsERKN2cv3MatE
FNL:9,410,479
FNA:9,0,_ZN14StabilizerCore19apply_edge_handlingERKN2cv3MatENS_8EdgeModeE
FNL:10,481,484
FNA:10,720,_ZN14StabilizerCore17update_parametersERKNS_16StabilizerParamsE
FNL:11,486,494
FNA:11,890,_ZN14StabilizerCore5resetEv
FNL:12,496,498
FNA:12,175,_ZNK14StabilizerCore23get_performance_metricsEv
FNL:13,501,503
FNA:13,22,_ZNK14StabilizerCore22get_current_transformsEv
FNL:14,506,508
FNA:14,20,_ZNK14StabilizerCore8is_readyEv
FNL:15,511,513
FNA:15,0,_ZNK14StabilizerCore14get_last_errorEv
FNL:16,516,518
FNA:16,5,_ZNK14StabilizerCore18get_current_paramsEv
FNL:17,521,533
FNA:17,20,_ZN14StabilizerCore17get_preset_gamingEv
FNL:18,536,548
FNA:18,20,_ZN14StabilizerCore20get_preset_streamingEv
FNL:19,551,563
FNA:19,20,_ZN14StabilizerCore20get_preset_recordingEv
FNL:20,566,596
FNA:20,59440,_ZN14StabilizerCore14validate_frameERKN2cv3MatE
FNL:21,67,178
FNA:21,60840,_ZN14StabilizerCore13process_frameERKN2cv3MatE
FNF:22
FNH:16
DA:26,1488
DA:30,1488
DA:37,1488
DA:38,5
DA:39,5
DA:40,5
DA:45,1483
DA:46,0
DA:47,0
DA:49,0
DA:54,1483
DA:56,1483
DA:57,1483
DA:58,1483
DA:59,1483
DA:60,1483
DA:61,1483
DA:62,1483
DA:65,0
DA:67,60840
DA:68,60840
DA:73,60840
DA:74,1420
DA:75,1420
DA:76,1420
DA:80,59420
DA:81,15
DA:82,15
DA:84,15
DA:88,59405
DA:89,250
DA:90,250
DA:95,59155
DA:96,59155
DA:97,0
DA:98,0
DA:99,0
DA:102,59155
DA:103,1394
DA:104,1394
DA:105,1394
DA:106,10
DA:107,10
DA:108,10
DA:110,1384
DA:111,1384
DA:112,1384
DA:113,1384
DA:114,1384
DA:115,1384
DA:118,57761
DA:122,57761
DA:123,57761
DA:124,57761
DA:125,57761
DA:126,57761
DA:128,57761
DA:129,10513
DA:130,10513
DA:131,10513
DA:132,10513
DA:133,57761
DA:134,57761
DA:137,0
DA:139,0
DA:140,0
DA:141,0
DA:142,0
DA:143,0
DA:146,0
DA:147,0
DA:148,0
DA:149,0
DA:151,0
DA:153,0
DA:154,0
DA:156,0
DA:159,0
DA:161,0
DA:163,0
DA:165,59155
DA:166,0
DA:167,0
DA:168,0
DA:169,0
DA:170,0
DA:171,0
DA:172,0
DA:173,0
DA:174,0
DA:175,0
DA:176,0
DA:177,0
DA:178,60840
DA:180,11907
DA:183,11907
DA:188,11907
DA:189,11907
DA:190,11907
DA:193,11907
DA:194,0
DA:195,0
DA:197,11907
DA:199,0
DA:200,0
DA:201,0
DA:202,0
DA:203,0
DA:204,0
DA:205,0
DA:206,0
DA:207,0
DA:208,0
DA:209,0
DA:210,0
DA:211,0
DA:212,11907
DA:214,57761
DA:218,57761
DA:219,0
DA:221,57761
DA:222,70
DA:225,57691
DA:226,57691
DA:227,57691
DA:228,57691
DA:232,57691
DA:233,57691
DA:238,57691
DA:240,57691
DA:241,115382
DA:245,57691
DA:246,57691
DA:247,57691
DA:248,150827
DA:250,93136
DA:251,57671
DA:252,57671
DA:253,57671
DA:254,57671
DA:255,57671
DA:256,93136
DA:257,57691
DA:258,57691
DA:263,57691
DA:264,57691
DA:266,57691
DA:267,0
DA:268,0
DA:269,0
DA:270,0
DA:271,0
DA:272,0
DA:273,0
DA:274,0
DA:275,0
DA:276,0
DA:277,0
DA:278,0
DA:279,57761
DA:281,0
DA:285,0
DA:286,0
DA:288,0
DA:290,0
DA:292,0
DA:296,0
DA:297,0
DA:300,0
DA:301,0
DA:302,0
DA:303,0
DA:304,0
DA:306,0
DA:308,0
DA:309,0
DA:310,0
DA:311,0
DA:312,0
DA:313,0
DA:314,0
DA:315,0
DA:316,0
DA:317,0
DA:318,0
DA:319,0
DA:320,0
DA:321,0
DA:323,0
DA:324,0
DA:327,0
DA:328,0
DA:329,0
DA:332,0
DA:333,0
DA:338,0
DA:339,0
DA:341,0
DA:342,0
DA:343,0
DA:344,0
DA:345,0
DA:347,0
DA:348,0
DA:350,0
DA:351,0
DA:353,59155
DA:354,59155
DA:355,59155
DA:356,59155
DA:357,59155
DA:358,59155
DA:360,0
DA:362,0
DA:363,0
DA:364,0
DA:365,0
DA:366,0
DA:367,0
DA:368,0
DA:369,0
DA:370,0
DA:371,0
DA:372,0
DA:373,0
DA:374,0
DA:375,0
DA:376,0
DA:377,0
DA:378,0
DA:380,35
DA:384,35
DA:385,35
DA:386,0
DA:393,35
DA:394,35
DA:396,35
DA:397,35
DA:400,35
DA:401,5
DA:406,30
DA:407,30
DA:408,35
DA:410,0
DA:412,0
DA:415,0
DA:419,0
DA:422,0
DA:423,0
DA:427,0
DA:428,0
DA:429,0
DA:430,0
DA:432,0
DA:433,0
DA:437,0
DA:440,0
DA:441,0
DA:445,0
DA:446,0
DA:447,0
DA:450,0
DA:451,0
DA:454,0
DA:455,0
DA:456,0
DA:457,0
DA:458,0
DA:460,0
DA:461,0
DA:464,0
DA:466,0
DA:467,0
DA:468,0
DA:469,0
DA:470,0
DA:471,0
DA:472,0
DA:473,0
DA:474,0
DA:475,0
DA:476,0
DA:477,0
DA:478,0
DA:479,0
DA:481,720
DA:483,720
DA:484,720
DA:486,890
DA:488,890
DA:489,890
DA:490,890
DA:491,890
DA:492,890
DA:494,0
DA:496,175
DA:498,175
DA:501,22
DA:503,22
DA:506,20
DA:508,20
DA:511,0
DA:513,0
DA:516,5
DA:518,5
DA:521,20
DA:522,20
DA:523,20
DA:524,20
DA:525,20
DA:526,20
DA:527,20
DA:528,20
DA:529,20
DA:530,20
DA:531,20
DA:532,20
DA:533,20
DA:536,20
DA:537,20
DA:538,20
DA:539,20
DA:540,20
DA:541,20
DA:542,20
DA:543,20
DA:544,20
DA:545,20
DA:546,20
DA:547,20
DA:548,20
DA:551,20
DA:552,20
DA:553,20
DA:554,20
DA:555,20
DA:556,20
DA:557,20
DA:558,20
DA:559,20
DA:560,20
DA:561,20
DA:562,20
DA:563,20
DA:566,59440
DA:567,59440
DA:568,10
DA:570,59430
DA:571,10
DA:573,59420
DA:574,5
DA:580,59415
DA:581,59415
DA:583,5
DA:589,59410
DA:590,59410
DA:592,5
DA:595,59405
DA:596,59440
LF:359
LH:185
end_of_record
TN:
SF:/Users/azumag/work/obs-stabilizer/src/core/stabilizer_core.hpp
FNL:0,29,29
FNA:0,781,_ZN14StabilizerCoreC1Ev
FNA:0,781,_ZN14StabilizerCoreC2Ev
FNA:0,781,_ZN14StabilizerCoreD1Ev
FNA:0,781,_ZN14StabilizerCoreD2Ev
FNL:1,40,66
FNA:1,1341,_ZN14StabilizerCore16StabilizerParamsC1Ev
FNA:1,1341,_ZN14StabilizerCore16StabilizerParamsC2Ev
FNL:2,69,184
FNA:2,781,_ZN14StabilizerCore18PerformanceMetricsC1Ev
FNA:2,781,_ZN14StabilizerCore18PerformanceMetricsC2Ev
FNF:3
FNH:3
DA:29,1562
DA:40,1341
DA:41,1341
DA:42,1341
DA:43,1341
DA:44,1341
DA:45,1341
DA:46,1341
DA:47,1341
DA:48,1341
DA:49,1341
DA:50,1341
DA:53,1341
DA:54,1341
DA:55,1341
DA:58,1341
DA:59,1341
DA:62,1341
DA:63,1341
DA:66,1341
DA:69,781
DA:70,781
DA:71,781
DA:166,781
DA:167,781
DA:168,781
DA:184,781
LF:27
LH:27
end_of_record
TN:
SF:/Users/azumag/work/obs-stabilizer/tests/test_basic.cpp
